
Send_Morse_Code.elf:     file format elf32-littlearm

Sections:
Idx Name          Size      VMA       LMA       File off  Algn
  0 .isr_vector   000000c0  08000000  08000000  00010000  2**0
                  CONTENTS, ALLOC, LOAD, READONLY, DATA
  1 .text         00000d84  080000c0  080000c0  000100c0  2**2
                  CONTENTS, ALLOC, LOAD, READONLY, CODE
  2 .rodata       00000034  08000e44  08000e44  00010e44  2**1
                  CONTENTS, ALLOC, LOAD, READONLY, DATA
  3 .ARM.extab    00000000  08000e78  08000e78  00020064  2**0
                  CONTENTS
  4 .ARM          00000000  08000e78  08000e78  00020064  2**0
                  CONTENTS
  5 .preinit_array 00000000  08000e78  08000e78  00020064  2**0
                  CONTENTS, ALLOC, LOAD, DATA
  6 .init_array   00000004  08000e78  08000e78  00010e78  2**2
                  CONTENTS, ALLOC, LOAD, DATA
  7 .fini_array   00000004  08000e7c  08000e7c  00010e7c  2**2
                  CONTENTS, ALLOC, LOAD, DATA
  8 .data         00000064  20000000  08000e80  00020000  2**2
                  CONTENTS, ALLOC, LOAD, DATA
  9 .bss          00000024  20000064  08000ee4  00020064  2**2
                  ALLOC
 10 ._user_heap_stack 00000600  20000088  08000ee4  00020088  2**0
                  ALLOC
 11 .ARM.attributes 00000028  00000000  00000000  00020064  2**0
                  CONTENTS, READONLY
 12 .comment      0000007b  00000000  00000000  0002008c  2**0
                  CONTENTS, READONLY
 13 .debug_frame  00000094  00000000  00000000  00020108  2**2
                  CONTENTS, READONLY, DEBUGGING

Disassembly of section .text:

080000c0 <__do_global_dtors_aux>:
 80000c0:	b510      	push	{r4, lr}
 80000c2:	4c06      	ldr	r4, [pc, #24]	; (80000dc <__do_global_dtors_aux+0x1c>)
 80000c4:	7823      	ldrb	r3, [r4, #0]
 80000c6:	2b00      	cmp	r3, #0
 80000c8:	d107      	bne.n	80000da <__do_global_dtors_aux+0x1a>
 80000ca:	4b05      	ldr	r3, [pc, #20]	; (80000e0 <__do_global_dtors_aux+0x20>)
 80000cc:	2b00      	cmp	r3, #0
 80000ce:	d002      	beq.n	80000d6 <__do_global_dtors_aux+0x16>
 80000d0:	4804      	ldr	r0, [pc, #16]	; (80000e4 <__do_global_dtors_aux+0x24>)
 80000d2:	e000      	b.n	80000d6 <__do_global_dtors_aux+0x16>
 80000d4:	bf00      	nop
 80000d6:	2301      	movs	r3, #1
 80000d8:	7023      	strb	r3, [r4, #0]
 80000da:	bd10      	pop	{r4, pc}
 80000dc:	20000064 	.word	0x20000064
 80000e0:	00000000 	.word	0x00000000
 80000e4:	08000e2c 	.word	0x08000e2c

080000e8 <frame_dummy>:
 80000e8:	4b04      	ldr	r3, [pc, #16]	; (80000fc <frame_dummy+0x14>)
 80000ea:	b510      	push	{r4, lr}
 80000ec:	2b00      	cmp	r3, #0
 80000ee:	d003      	beq.n	80000f8 <frame_dummy+0x10>
 80000f0:	4903      	ldr	r1, [pc, #12]	; (8000100 <frame_dummy+0x18>)
 80000f2:	4804      	ldr	r0, [pc, #16]	; (8000104 <frame_dummy+0x1c>)
 80000f4:	e000      	b.n	80000f8 <frame_dummy+0x10>
 80000f6:	bf00      	nop
 80000f8:	bd10      	pop	{r4, pc}
 80000fa:	46c0      	nop			; (mov r8, r8)
 80000fc:	00000000 	.word	0x00000000
 8000100:	20000068 	.word	0x20000068
 8000104:	08000e2c 	.word	0x08000e2c

08000108 <__gnu_thumb1_case_uqi>:
 8000108:	b402      	push	{r1}
 800010a:	4671      	mov	r1, lr
 800010c:	0849      	lsrs	r1, r1, #1
 800010e:	0049      	lsls	r1, r1, #1
 8000110:	5c09      	ldrb	r1, [r1, r0]
 8000112:	0049      	lsls	r1, r1, #1
 8000114:	448e      	add	lr, r1
 8000116:	bc02      	pop	{r1}
 8000118:	4770      	bx	lr
 800011a:	46c0      	nop			; (mov r8, r8)

0800011c <__udivsi3>:
 800011c:	2200      	movs	r2, #0
 800011e:	0843      	lsrs	r3, r0, #1
 8000120:	428b      	cmp	r3, r1
 8000122:	d374      	bcc.n	800020e <__udivsi3+0xf2>
 8000124:	0903      	lsrs	r3, r0, #4
 8000126:	428b      	cmp	r3, r1
 8000128:	d35f      	bcc.n	80001ea <__udivsi3+0xce>
 800012a:	0a03      	lsrs	r3, r0, #8
 800012c:	428b      	cmp	r3, r1
 800012e:	d344      	bcc.n	80001ba <__udivsi3+0x9e>
 8000130:	0b03      	lsrs	r3, r0, #12
 8000132:	428b      	cmp	r3, r1
 8000134:	d328      	bcc.n	8000188 <__udivsi3+0x6c>
 8000136:	0c03      	lsrs	r3, r0, #16
 8000138:	428b      	cmp	r3, r1
 800013a:	d30d      	bcc.n	8000158 <__udivsi3+0x3c>
 800013c:	22ff      	movs	r2, #255	; 0xff
 800013e:	0209      	lsls	r1, r1, #8
 8000140:	ba12      	rev	r2, r2
 8000142:	0c03      	lsrs	r3, r0, #16
 8000144:	428b      	cmp	r3, r1
 8000146:	d302      	bcc.n	800014e <__udivsi3+0x32>
 8000148:	1212      	asrs	r2, r2, #8
 800014a:	0209      	lsls	r1, r1, #8
 800014c:	d065      	beq.n	800021a <__udivsi3+0xfe>
 800014e:	0b03      	lsrs	r3, r0, #12
 8000150:	428b      	cmp	r3, r1
 8000152:	d319      	bcc.n	8000188 <__udivsi3+0x6c>
 8000154:	e000      	b.n	8000158 <__udivsi3+0x3c>
 8000156:	0a09      	lsrs	r1, r1, #8
 8000158:	0bc3      	lsrs	r3, r0, #15
 800015a:	428b      	cmp	r3, r1
 800015c:	d301      	bcc.n	8000162 <__udivsi3+0x46>
 800015e:	03cb      	lsls	r3, r1, #15
 8000160:	1ac0      	subs	r0, r0, r3
 8000162:	4152      	adcs	r2, r2
 8000164:	0b83      	lsrs	r3, r0, #14
 8000166:	428b      	cmp	r3, r1
 8000168:	d301      	bcc.n	800016e <__udivsi3+0x52>
 800016a:	038b      	lsls	r3, r1, #14
 800016c:	1ac0      	subs	r0, r0, r3
 800016e:	4152      	adcs	r2, r2
 8000170:	0b43      	lsrs	r3, r0, #13
 8000172:	428b      	cmp	r3, r1
 8000174:	d301      	bcc.n	800017a <__udivsi3+0x5e>
 8000176:	034b      	lsls	r3, r1, #13
 8000178:	1ac0      	subs	r0, r0, r3
 800017a:	4152      	adcs	r2, r2
 800017c:	0b03      	lsrs	r3, r0, #12
 800017e:	428b      	cmp	r3, r1
 8000180:	d301      	bcc.n	8000186 <__udivsi3+0x6a>
 8000182:	030b      	lsls	r3, r1, #12
 8000184:	1ac0      	subs	r0, r0, r3
 8000186:	4152      	adcs	r2, r2
 8000188:	0ac3      	lsrs	r3, r0, #11
 800018a:	428b      	cmp	r3, r1
 800018c:	d301      	bcc.n	8000192 <__udivsi3+0x76>
 800018e:	02cb      	lsls	r3, r1, #11
 8000190:	1ac0      	subs	r0, r0, r3
 8000192:	4152      	adcs	r2, r2
 8000194:	0a83      	lsrs	r3, r0, #10
 8000196:	428b      	cmp	r3, r1
 8000198:	d301      	bcc.n	800019e <__udivsi3+0x82>
 800019a:	028b      	lsls	r3, r1, #10
 800019c:	1ac0      	subs	r0, r0, r3
 800019e:	4152      	adcs	r2, r2
 80001a0:	0a43      	lsrs	r3, r0, #9
 80001a2:	428b      	cmp	r3, r1
 80001a4:	d301      	bcc.n	80001aa <__udivsi3+0x8e>
 80001a6:	024b      	lsls	r3, r1, #9
 80001a8:	1ac0      	subs	r0, r0, r3
 80001aa:	4152      	adcs	r2, r2
 80001ac:	0a03      	lsrs	r3, r0, #8
 80001ae:	428b      	cmp	r3, r1
 80001b0:	d301      	bcc.n	80001b6 <__udivsi3+0x9a>
 80001b2:	020b      	lsls	r3, r1, #8
 80001b4:	1ac0      	subs	r0, r0, r3
 80001b6:	4152      	adcs	r2, r2
 80001b8:	d2cd      	bcs.n	8000156 <__udivsi3+0x3a>
 80001ba:	09c3      	lsrs	r3, r0, #7
 80001bc:	428b      	cmp	r3, r1
 80001be:	d301      	bcc.n	80001c4 <__udivsi3+0xa8>
 80001c0:	01cb      	lsls	r3, r1, #7
 80001c2:	1ac0      	subs	r0, r0, r3
 80001c4:	4152      	adcs	r2, r2
 80001c6:	0983      	lsrs	r3, r0, #6
 80001c8:	428b      	cmp	r3, r1
 80001ca:	d301      	bcc.n	80001d0 <__udivsi3+0xb4>
 80001cc:	018b      	lsls	r3, r1, #6
 80001ce:	1ac0      	subs	r0, r0, r3
 80001d0:	4152      	adcs	r2, r2
 80001d2:	0943      	lsrs	r3, r0, #5
 80001d4:	428b      	cmp	r3, r1
 80001d6:	d301      	bcc.n	80001dc <__udivsi3+0xc0>
 80001d8:	014b      	lsls	r3, r1, #5
 80001da:	1ac0      	subs	r0, r0, r3
 80001dc:	4152      	adcs	r2, r2
 80001de:	0903      	lsrs	r3, r0, #4
 80001e0:	428b      	cmp	r3, r1
 80001e2:	d301      	bcc.n	80001e8 <__udivsi3+0xcc>
 80001e4:	010b      	lsls	r3, r1, #4
 80001e6:	1ac0      	subs	r0, r0, r3
 80001e8:	4152      	adcs	r2, r2
 80001ea:	08c3      	lsrs	r3, r0, #3
 80001ec:	428b      	cmp	r3, r1
 80001ee:	d301      	bcc.n	80001f4 <__udivsi3+0xd8>
 80001f0:	00cb      	lsls	r3, r1, #3
 80001f2:	1ac0      	subs	r0, r0, r3
 80001f4:	4152      	adcs	r2, r2
 80001f6:	0883      	lsrs	r3, r0, #2
 80001f8:	428b      	cmp	r3, r1
 80001fa:	d301      	bcc.n	8000200 <__udivsi3+0xe4>
 80001fc:	008b      	lsls	r3, r1, #2
 80001fe:	1ac0      	subs	r0, r0, r3
 8000200:	4152      	adcs	r2, r2
 8000202:	0843      	lsrs	r3, r0, #1
 8000204:	428b      	cmp	r3, r1
 8000206:	d301      	bcc.n	800020c <__udivsi3+0xf0>
 8000208:	004b      	lsls	r3, r1, #1
 800020a:	1ac0      	subs	r0, r0, r3
 800020c:	4152      	adcs	r2, r2
 800020e:	1a41      	subs	r1, r0, r1
 8000210:	d200      	bcs.n	8000214 <__udivsi3+0xf8>
 8000212:	4601      	mov	r1, r0
 8000214:	4152      	adcs	r2, r2
 8000216:	4610      	mov	r0, r2
 8000218:	4770      	bx	lr
 800021a:	e7ff      	b.n	800021c <__udivsi3+0x100>
 800021c:	b501      	push	{r0, lr}
 800021e:	2000      	movs	r0, #0
 8000220:	f000 f806 	bl	8000230 <__aeabi_idiv0>
 8000224:	bd02      	pop	{r1, pc}
 8000226:	46c0      	nop			; (mov r8, r8)

08000228 <__aeabi_uidivmod>:
 8000228:	2900      	cmp	r1, #0
 800022a:	d0f7      	beq.n	800021c <__udivsi3+0x100>
 800022c:	e776      	b.n	800011c <__udivsi3>
 800022e:	4770      	bx	lr

08000230 <__aeabi_idiv0>:
 8000230:	4770      	bx	lr
 8000232:	46c0      	nop			; (mov r8, r8)

08000234 <SystemClock_Config>:
 8000234:	b570      	push	{r4, r5, r6, lr}
 8000236:	2610      	movs	r6, #16
 8000238:	b090      	sub	sp, #64	; 0x40
 800023a:	222c      	movs	r2, #44	; 0x2c
 800023c:	2100      	movs	r1, #0
 800023e:	a805      	add	r0, sp, #20
 8000240:	f000 fdeb 	bl	8000e1a <memset>
 8000244:	0032      	movs	r2, r6
 8000246:	2100      	movs	r1, #0
 8000248:	4668      	mov	r0, sp
 800024a:	f000 fde6 	bl	8000e1a <memset>
 800024e:	23a0      	movs	r3, #160	; 0xa0
 8000250:	2402      	movs	r4, #2
 8000252:	2501      	movs	r5, #1
 8000254:	039b      	lsls	r3, r3, #14
 8000256:	a804      	add	r0, sp, #16
 8000258:	930e      	str	r3, [sp, #56]	; 0x38
 800025a:	9404      	str	r4, [sp, #16]
 800025c:	9507      	str	r5, [sp, #28]
 800025e:	9608      	str	r6, [sp, #32]
 8000260:	940c      	str	r4, [sp, #48]	; 0x30
 8000262:	f000 faf5 	bl	8000850 <HAL_RCC_OscConfig>
 8000266:	2307      	movs	r3, #7
 8000268:	9300      	str	r3, [sp, #0]
 800026a:	33a9      	adds	r3, #169	; 0xa9
 800026c:	9302      	str	r3, [sp, #8]
 800026e:	2300      	movs	r3, #0
 8000270:	0029      	movs	r1, r5
 8000272:	4668      	mov	r0, sp
 8000274:	9401      	str	r4, [sp, #4]
 8000276:	9303      	str	r3, [sp, #12]
 8000278:	f000 fd1e 	bl	8000cb8 <HAL_RCC_ClockConfig>
 800027c:	b010      	add	sp, #64	; 0x40
 800027e:	bd70      	pop	{r4, r5, r6, pc}

08000280 <main>:
 8000280:	b570      	push	{r4, r5, r6, lr}
 8000282:	b088      	sub	sp, #32
 8000284:	f000 f9ae 	bl	80005e4 <HAL_Init>
 8000288:	f7ff ffd4 	bl	8000234 <SystemClock_Config>
 800028c:	4b2a      	ldr	r3, [pc, #168]	; (8000338 <main+0xb8>)
 800028e:	210a      	movs	r1, #10
 8000290:	6818      	ldr	r0, [r3, #0]
 8000292:	f7ff ff43 	bl	800011c <__udivsi3>
 8000296:	4b29      	ldr	r3, [pc, #164]	; (800033c <main+0xbc>)
 8000298:	3801      	subs	r0, #1
 800029a:	4298      	cmp	r0, r3
 800029c:	d80d      	bhi.n	80002ba <main+0x3a>
 800029e:	21c0      	movs	r1, #192	; 0xc0
 80002a0:	4a27      	ldr	r2, [pc, #156]	; (8000340 <main+0xc0>)
 80002a2:	0609      	lsls	r1, r1, #24
 80002a4:	6050      	str	r0, [r2, #4]
 80002a6:	4827      	ldr	r0, [pc, #156]	; (8000344 <main+0xc4>)
 80002a8:	6a03      	ldr	r3, [r0, #32]
 80002aa:	021b      	lsls	r3, r3, #8
 80002ac:	0a1b      	lsrs	r3, r3, #8
 80002ae:	430b      	orrs	r3, r1
 80002b0:	6203      	str	r3, [r0, #32]
 80002b2:	2300      	movs	r3, #0
 80002b4:	6093      	str	r3, [r2, #8]
 80002b6:	3307      	adds	r3, #7
 80002b8:	6013      	str	r3, [r2, #0]
 80002ba:	2214      	movs	r2, #20
 80002bc:	2100      	movs	r1, #0
 80002be:	a803      	add	r0, sp, #12
 80002c0:	f000 fdab 	bl	8000e1a <memset>
 80002c4:	2080      	movs	r0, #128	; 0x80
 80002c6:	4b20      	ldr	r3, [pc, #128]	; (8000348 <main+0xc8>)
 80002c8:	0280      	lsls	r0, r0, #10
 80002ca:	6959      	ldr	r1, [r3, #20]
 80002cc:	26c0      	movs	r6, #192	; 0xc0
 80002ce:	4301      	orrs	r1, r0
 80002d0:	6159      	str	r1, [r3, #20]
 80002d2:	2180      	movs	r1, #128	; 0x80
 80002d4:	695a      	ldr	r2, [r3, #20]
 80002d6:	0309      	lsls	r1, r1, #12
 80002d8:	4002      	ands	r2, r0
 80002da:	9201      	str	r2, [sp, #4]
 80002dc:	9a01      	ldr	r2, [sp, #4]
 80002de:	695a      	ldr	r2, [r3, #20]
 80002e0:	00b6      	lsls	r6, r6, #2
 80002e2:	430a      	orrs	r2, r1
 80002e4:	615a      	str	r2, [r3, #20]
 80002e6:	695b      	ldr	r3, [r3, #20]
 80002e8:	2200      	movs	r2, #0
 80002ea:	400b      	ands	r3, r1
 80002ec:	9302      	str	r3, [sp, #8]
 80002ee:	0031      	movs	r1, r6
 80002f0:	4816      	ldr	r0, [pc, #88]	; (800034c <main+0xcc>)
 80002f2:	9b02      	ldr	r3, [sp, #8]
 80002f4:	f000 fa98 	bl	8000828 <HAL_GPIO_WritePin>
 80002f8:	2090      	movs	r0, #144	; 0x90
 80002fa:	2400      	movs	r4, #0
 80002fc:	2501      	movs	r5, #1
 80002fe:	4b14      	ldr	r3, [pc, #80]	; (8000350 <main+0xd0>)
 8000300:	a903      	add	r1, sp, #12
 8000302:	05c0      	lsls	r0, r0, #23
 8000304:	9304      	str	r3, [sp, #16]
 8000306:	9503      	str	r5, [sp, #12]
 8000308:	9405      	str	r4, [sp, #20]
 800030a:	f000 f9dd 	bl	80006c8 <HAL_GPIO_Init>
 800030e:	a903      	add	r1, sp, #12
 8000310:	480e      	ldr	r0, [pc, #56]	; (800034c <main+0xcc>)
 8000312:	9603      	str	r6, [sp, #12]
 8000314:	9504      	str	r5, [sp, #16]
 8000316:	9405      	str	r4, [sp, #20]
 8000318:	9406      	str	r4, [sp, #24]
 800031a:	f000 f9d5 	bl	80006c8 <HAL_GPIO_Init>
 800031e:	0022      	movs	r2, r4
 8000320:	0021      	movs	r1, r4
 8000322:	2005      	movs	r0, #5
 8000324:	f000 f980 	bl	8000628 <HAL_NVIC_SetPriority>
 8000328:	2005      	movs	r0, #5
 800032a:	f000 f9a7 	bl	800067c <HAL_NVIC_EnableIRQ>
 800032e:	0020      	movs	r0, r4
 8000330:	f000 f810 	bl	8000354 <BSP_LED_Init>
 8000334:	e7fe      	b.n	8000334 <main+0xb4>
 8000336:	46c0      	nop			; (mov r8, r8)
 8000338:	20000058 	.word	0x20000058
 800033c:	00ffffff 	.word	0x00ffffff
 8000340:	e000e010 	.word	0xe000e010
 8000344:	e000ed00 	.word	0xe000ed00
 8000348:	40021000 	.word	0x40021000
 800034c:	48000800 	.word	0x48000800
 8000350:	10210000 	.word	0x10210000

08000354 <BSP_LED_Init>:
 8000354:	b5f0      	push	{r4, r5, r6, r7, lr}
 8000356:	2480      	movs	r4, #128	; 0x80
 8000358:	4a10      	ldr	r2, [pc, #64]	; (800039c <BSP_LED_Init+0x48>)
 800035a:	0324      	lsls	r4, r4, #12
 800035c:	6951      	ldr	r1, [r2, #20]
 800035e:	b087      	sub	sp, #28
 8000360:	4321      	orrs	r1, r4
 8000362:	6151      	str	r1, [r2, #20]
 8000364:	6953      	ldr	r3, [r2, #20]
 8000366:	0042      	lsls	r2, r0, #1
 8000368:	4023      	ands	r3, r4
 800036a:	9300      	str	r3, [sp, #0]
 800036c:	9b00      	ldr	r3, [sp, #0]
 800036e:	4b0c      	ldr	r3, [pc, #48]	; (80003a0 <BSP_LED_Init+0x4c>)
 8000370:	2700      	movs	r7, #0
 8000372:	5ad6      	ldrh	r6, [r2, r3]
 8000374:	2301      	movs	r3, #1
 8000376:	4d0b      	ldr	r5, [pc, #44]	; (80003a4 <BSP_LED_Init+0x50>)
 8000378:	0084      	lsls	r4, r0, #2
 800037a:	9302      	str	r3, [sp, #8]
 800037c:	a901      	add	r1, sp, #4
 800037e:	3302      	adds	r3, #2
 8000380:	5960      	ldr	r0, [r4, r5]
 8000382:	9304      	str	r3, [sp, #16]
 8000384:	9601      	str	r6, [sp, #4]
 8000386:	9703      	str	r7, [sp, #12]
 8000388:	f000 f99e 	bl	80006c8 <HAL_GPIO_Init>
 800038c:	003a      	movs	r2, r7
 800038e:	0031      	movs	r1, r6
 8000390:	5960      	ldr	r0, [r4, r5]
 8000392:	f000 fa49 	bl	8000828 <HAL_GPIO_WritePin>
 8000396:	b007      	add	sp, #28
 8000398:	bdf0      	pop	{r4, r5, r6, r7, pc}
 800039a:	46c0      	nop			; (mov r8, r8)
 800039c:	40021000 	.word	0x40021000
 80003a0:	08000e64 	.word	0x08000e64
 80003a4:	20000000 	.word	0x20000000

080003a8 <BSP_LED_On>:
 80003a8:	4b05      	ldr	r3, [pc, #20]	; (80003c0 <BSP_LED_On+0x18>)
 80003aa:	b510      	push	{r4, lr}
 80003ac:	0042      	lsls	r2, r0, #1
 80003ae:	5ad1      	ldrh	r1, [r2, r3]
 80003b0:	4b04      	ldr	r3, [pc, #16]	; (80003c4 <BSP_LED_On+0x1c>)
 80003b2:	0080      	lsls	r0, r0, #2
 80003b4:	2201      	movs	r2, #1
 80003b6:	58c0      	ldr	r0, [r0, r3]
 80003b8:	f000 fa36 	bl	8000828 <HAL_GPIO_WritePin>
 80003bc:	bd10      	pop	{r4, pc}
 80003be:	46c0      	nop			; (mov r8, r8)
 80003c0:	08000e64 	.word	0x08000e64
 80003c4:	20000000 	.word	0x20000000

080003c8 <BSP_LED_Off>:
 80003c8:	4b05      	ldr	r3, [pc, #20]	; (80003e0 <BSP_LED_Off+0x18>)
 80003ca:	b510      	push	{r4, lr}
 80003cc:	0042      	lsls	r2, r0, #1
 80003ce:	5ad1      	ldrh	r1, [r2, r3]
 80003d0:	4b04      	ldr	r3, [pc, #16]	; (80003e4 <BSP_LED_Off+0x1c>)
 80003d2:	0080      	lsls	r0, r0, #2
 80003d4:	2200      	movs	r2, #0
 80003d6:	58c0      	ldr	r0, [r0, r3]
 80003d8:	f000 fa26 	bl	8000828 <HAL_GPIO_WritePin>
 80003dc:	bd10      	pop	{r4, pc}
 80003de:	46c0      	nop			; (mov r8, r8)
 80003e0:	08000e64 	.word	0x08000e64
 80003e4:	20000000 	.word	0x20000000

080003e8 <HAL_MspInit>:
 80003e8:	2001      	movs	r0, #1
 80003ea:	4b0a      	ldr	r3, [pc, #40]	; (8000414 <HAL_MspInit+0x2c>)
 80003ec:	b082      	sub	sp, #8
 80003ee:	6999      	ldr	r1, [r3, #24]
 80003f0:	4301      	orrs	r1, r0
 80003f2:	6199      	str	r1, [r3, #24]
 80003f4:	2180      	movs	r1, #128	; 0x80
 80003f6:	699a      	ldr	r2, [r3, #24]
 80003f8:	0549      	lsls	r1, r1, #21
 80003fa:	4002      	ands	r2, r0
 80003fc:	9200      	str	r2, [sp, #0]
 80003fe:	9a00      	ldr	r2, [sp, #0]
 8000400:	69da      	ldr	r2, [r3, #28]
 8000402:	430a      	orrs	r2, r1
 8000404:	61da      	str	r2, [r3, #28]
 8000406:	69db      	ldr	r3, [r3, #28]
 8000408:	400b      	ands	r3, r1
 800040a:	9301      	str	r3, [sp, #4]
 800040c:	9b01      	ldr	r3, [sp, #4]
 800040e:	b002      	add	sp, #8
 8000410:	4770      	bx	lr
 8000412:	46c0      	nop			; (mov r8, r8)
 8000414:	40021000 	.word	0x40021000

08000418 <ziel>:
 8000418:	b510      	push	{r4, lr}
 800041a:	4c0f      	ldr	r4, [pc, #60]	; (8000458 <ziel+0x40>)
 800041c:	7820      	ldrb	r0, [r4, #0]
 800041e:	3801      	subs	r0, #1
 8000420:	2805      	cmp	r0, #5
 8000422:	d80d      	bhi.n	8000440 <ziel+0x28>
 8000424:	f7ff fe70 	bl	8000108 <__gnu_thumb1_case_uqi>
 8000428:	0c030d03 	.word	0x0c030d03
 800042c:	120c      	.short	0x120c
 800042e:	2000      	movs	r0, #0
 8000430:	f7ff ffba 	bl	80003a8 <BSP_LED_On>
 8000434:	2201      	movs	r2, #1
 8000436:	4b09      	ldr	r3, [pc, #36]	; (800045c <ziel+0x44>)
 8000438:	701a      	strb	r2, [r3, #0]
 800043a:	7823      	ldrb	r3, [r4, #0]
 800043c:	3b01      	subs	r3, #1
 800043e:	7023      	strb	r3, [r4, #0]
 8000440:	bd10      	pop	{r4, pc}
 8000442:	2202      	movs	r2, #2
 8000444:	4b05      	ldr	r3, [pc, #20]	; (800045c <ziel+0x44>)
 8000446:	701a      	strb	r2, [r3, #0]
 8000448:	2301      	movs	r3, #1
 800044a:	e7f8      	b.n	800043e <ziel+0x26>
 800044c:	2202      	movs	r2, #2
 800044e:	4b03      	ldr	r3, [pc, #12]	; (800045c <ziel+0x44>)
 8000450:	701a      	strb	r2, [r3, #0]
 8000452:	2305      	movs	r3, #5
 8000454:	e7f3      	b.n	800043e <ziel+0x26>
 8000456:	46c0      	nop			; (mov r8, r8)
 8000458:	20000080 	.word	0x20000080
 800045c:	20000082 	.word	0x20000082

08000460 <send_message>:
 8000460:	b570      	push	{r4, r5, r6, lr}
 8000462:	4d1c      	ldr	r5, [pc, #112]	; (80004d4 <send_message+0x74>)
 8000464:	782b      	ldrb	r3, [r5, #0]
 8000466:	2b01      	cmp	r3, #1
 8000468:	d010      	beq.n	800048c <send_message+0x2c>
 800046a:	2b00      	cmp	r3, #0
 800046c:	d002      	beq.n	8000474 <send_message+0x14>
 800046e:	2b02      	cmp	r3, #2
 8000470:	d018      	beq.n	80004a4 <send_message+0x44>
 8000472:	bd70      	pop	{r4, r5, r6, pc}
 8000474:	4a18      	ldr	r2, [pc, #96]	; (80004d8 <send_message+0x78>)
 8000476:	7813      	ldrb	r3, [r2, #0]
 8000478:	3301      	adds	r3, #1
 800047a:	b25b      	sxtb	r3, r3
 800047c:	7013      	strb	r3, [r2, #0]
 800047e:	4a17      	ldr	r2, [pc, #92]	; (80004dc <send_message+0x7c>)
 8000480:	5cd2      	ldrb	r2, [r2, r3]
 8000482:	4b17      	ldr	r3, [pc, #92]	; (80004e0 <send_message+0x80>)
 8000484:	701a      	strb	r2, [r3, #0]
 8000486:	f7ff ffc7 	bl	8000418 <ziel>
 800048a:	e7f2      	b.n	8000472 <send_message+0x12>
 800048c:	4b14      	ldr	r3, [pc, #80]	; (80004e0 <send_message+0x80>)
 800048e:	781c      	ldrb	r4, [r3, #0]
 8000490:	2c00      	cmp	r4, #0
 8000492:	d104      	bne.n	800049e <send_message+0x3e>
 8000494:	0020      	movs	r0, r4
 8000496:	f7ff ff97 	bl	80003c8 <BSP_LED_Off>
 800049a:	702c      	strb	r4, [r5, #0]
 800049c:	e7e9      	b.n	8000472 <send_message+0x12>
 800049e:	3c01      	subs	r4, #1
 80004a0:	701c      	strb	r4, [r3, #0]
 80004a2:	e7e6      	b.n	8000472 <send_message+0x12>
 80004a4:	490e      	ldr	r1, [pc, #56]	; (80004e0 <send_message+0x80>)
 80004a6:	780a      	ldrb	r2, [r1, #0]
 80004a8:	2a00      	cmp	r2, #0
 80004aa:	d10f      	bne.n	80004cc <send_message+0x6c>
 80004ac:	480a      	ldr	r0, [pc, #40]	; (80004d8 <send_message+0x78>)
 80004ae:	7803      	ldrb	r3, [r0, #0]
 80004b0:	3301      	adds	r3, #1
 80004b2:	b25b      	sxtb	r3, r3
 80004b4:	7003      	strb	r3, [r0, #0]
 80004b6:	480b      	ldr	r0, [pc, #44]	; (80004e4 <send_message+0x84>)
 80004b8:	7800      	ldrb	r0, [r0, #0]
 80004ba:	4283      	cmp	r3, r0
 80004bc:	dc03      	bgt.n	80004c6 <send_message+0x66>
 80004be:	4a07      	ldr	r2, [pc, #28]	; (80004dc <send_message+0x7c>)
 80004c0:	5cd3      	ldrb	r3, [r2, r3]
 80004c2:	700b      	strb	r3, [r1, #0]
 80004c4:	e7df      	b.n	8000486 <send_message+0x26>
 80004c6:	4b08      	ldr	r3, [pc, #32]	; (80004e8 <send_message+0x88>)
 80004c8:	701a      	strb	r2, [r3, #0]
 80004ca:	e7d2      	b.n	8000472 <send_message+0x12>
 80004cc:	3a01      	subs	r2, #1
 80004ce:	700a      	strb	r2, [r1, #0]
 80004d0:	e7cf      	b.n	8000472 <send_message+0x12>
 80004d2:	46c0      	nop			; (mov r8, r8)
 80004d4:	20000082 	.word	0x20000082
 80004d8:	20000008 	.word	0x20000008
 80004dc:	20000009 	.word	0x20000009
 80004e0:	20000080 	.word	0x20000080
 80004e4:	20000054 	.word	0x20000054
 80004e8:	20000081 	.word	0x20000081

080004ec <NMI_Handler>:
 80004ec:	4770      	bx	lr

080004ee <HardFault_Handler>:
 80004ee:	e7fe      	b.n	80004ee <HardFault_Handler>

080004f0 <SVC_Handler>:
 80004f0:	4770      	bx	lr

080004f2 <PendSV_Handler>:
 80004f2:	4770      	bx	lr

080004f4 <SysTick_Handler>:
 80004f4:	b510      	push	{r4, lr}
 80004f6:	4b04      	ldr	r3, [pc, #16]	; (8000508 <SysTick_Handler+0x14>)
 80004f8:	781b      	ldrb	r3, [r3, #0]
 80004fa:	2b00      	cmp	r3, #0
 80004fc:	d001      	beq.n	8000502 <SysTick_Handler+0xe>
 80004fe:	f7ff ffaf 	bl	8000460 <send_message>
 8000502:	f000 f87f 	bl	8000604 <HAL_IncTick>
 8000506:	bd10      	pop	{r4, pc}
 8000508:	20000081 	.word	0x20000081

0800050c <EXTI0_1_IRQHandler>:
 800050c:	2100      	movs	r1, #0
 800050e:	b510      	push	{r4, lr}
 8000510:	4b08      	ldr	r3, [pc, #32]	; (8000534 <EXTI0_1_IRQHandler+0x28>)
 8000512:	4a09      	ldr	r2, [pc, #36]	; (8000538 <EXTI0_1_IRQHandler+0x2c>)
 8000514:	5659      	ldrsb	r1, [r3, r1]
 8000516:	7812      	ldrb	r2, [r2, #0]
 8000518:	4291      	cmp	r1, r2
 800051a:	db07      	blt.n	800052c <EXTI0_1_IRQHandler+0x20>
 800051c:	2101      	movs	r1, #1
 800051e:	4a07      	ldr	r2, [pc, #28]	; (800053c <EXTI0_1_IRQHandler+0x30>)
 8000520:	7011      	strb	r1, [r2, #0]
 8000522:	2100      	movs	r1, #0
 8000524:	4a06      	ldr	r2, [pc, #24]	; (8000540 <EXTI0_1_IRQHandler+0x34>)
 8000526:	7011      	strb	r1, [r2, #0]
 8000528:	22ff      	movs	r2, #255	; 0xff
 800052a:	701a      	strb	r2, [r3, #0]
 800052c:	2001      	movs	r0, #1
 800052e:	f000 f983 	bl	8000838 <HAL_GPIO_EXTI_IRQHandler>
 8000532:	bd10      	pop	{r4, pc}
 8000534:	20000008 	.word	0x20000008
 8000538:	20000054 	.word	0x20000054
 800053c:	20000081 	.word	0x20000081
 8000540:	20000082 	.word	0x20000082

08000544 <SystemInit>:
 8000544:	4770      	bx	lr
	...

08000548 <Reset_Handler>:
 8000548:	480d      	ldr	r0, [pc, #52]	; (8000580 <LoopForever+0x2>)
 800054a:	4685      	mov	sp, r0
 800054c:	480d      	ldr	r0, [pc, #52]	; (8000584 <LoopForever+0x6>)
 800054e:	490e      	ldr	r1, [pc, #56]	; (8000588 <LoopForever+0xa>)
 8000550:	4a0e      	ldr	r2, [pc, #56]	; (800058c <LoopForever+0xe>)
 8000552:	2300      	movs	r3, #0
 8000554:	e002      	b.n	800055c <LoopCopyDataInit>

08000556 <CopyDataInit>:
 8000556:	58d4      	ldr	r4, [r2, r3]
 8000558:	50c4      	str	r4, [r0, r3]
 800055a:	3304      	adds	r3, #4

0800055c <LoopCopyDataInit>:
 800055c:	18c4      	adds	r4, r0, r3
 800055e:	428c      	cmp	r4, r1
 8000560:	d3f9      	bcc.n	8000556 <CopyDataInit>
 8000562:	4a0b      	ldr	r2, [pc, #44]	; (8000590 <LoopForever+0x12>)
 8000564:	4c0b      	ldr	r4, [pc, #44]	; (8000594 <LoopForever+0x16>)
 8000566:	2300      	movs	r3, #0
 8000568:	e001      	b.n	800056e <LoopFillZerobss>

0800056a <FillZerobss>:
 800056a:	6013      	str	r3, [r2, #0]
 800056c:	3204      	adds	r2, #4

0800056e <LoopFillZerobss>:
 800056e:	42a2      	cmp	r2, r4
 8000570:	d3fb      	bcc.n	800056a <FillZerobss>
 8000572:	f7ff ffe7 	bl	8000544 <SystemInit>
 8000576:	f000 fc23 	bl	8000dc0 <__libc_init_array>
 800057a:	f7ff fe81 	bl	8000280 <main>

0800057e <LoopForever>:
 800057e:	e7fe      	b.n	800057e <LoopForever>
 8000580:	20002000 	.word	0x20002000
 8000584:	20000000 	.word	0x20000000
 8000588:	20000064 	.word	0x20000064
 800058c:	08000e80 	.word	0x08000e80
 8000590:	20000064 	.word	0x20000064
 8000594:	20000088 	.word	0x20000088

08000598 <ADC1_IRQHandler>:
 8000598:	e7fe      	b.n	8000598 <ADC1_IRQHandler>
	...

0800059c <HAL_InitTick>:
 800059c:	b570      	push	{r4, r5, r6, lr}
 800059e:	0005      	movs	r5, r0
 80005a0:	20fa      	movs	r0, #250	; 0xfa
 80005a2:	4b0d      	ldr	r3, [pc, #52]	; (80005d8 <HAL_InitTick+0x3c>)
 80005a4:	0080      	lsls	r0, r0, #2
 80005a6:	7819      	ldrb	r1, [r3, #0]
 80005a8:	f7ff fdb8 	bl	800011c <__udivsi3>
 80005ac:	4b0b      	ldr	r3, [pc, #44]	; (80005dc <HAL_InitTick+0x40>)
 80005ae:	0001      	movs	r1, r0
 80005b0:	6818      	ldr	r0, [r3, #0]
 80005b2:	f7ff fdb3 	bl	800011c <__udivsi3>
 80005b6:	f000 f86d 	bl	8000694 <HAL_SYSTICK_Config>
 80005ba:	0004      	movs	r4, r0
 80005bc:	2001      	movs	r0, #1
 80005be:	2c00      	cmp	r4, #0
 80005c0:	d109      	bne.n	80005d6 <HAL_InitTick+0x3a>
 80005c2:	2d03      	cmp	r5, #3
 80005c4:	d807      	bhi.n	80005d6 <HAL_InitTick+0x3a>
 80005c6:	3802      	subs	r0, #2
 80005c8:	0022      	movs	r2, r4
 80005ca:	0029      	movs	r1, r5
 80005cc:	f000 f82c 	bl	8000628 <HAL_NVIC_SetPriority>
 80005d0:	0020      	movs	r0, r4
 80005d2:	4b03      	ldr	r3, [pc, #12]	; (80005e0 <HAL_InitTick+0x44>)
 80005d4:	601d      	str	r5, [r3, #0]
 80005d6:	bd70      	pop	{r4, r5, r6, pc}
 80005d8:	2000005c 	.word	0x2000005c
 80005dc:	20000058 	.word	0x20000058
 80005e0:	20000060 	.word	0x20000060

080005e4 <HAL_Init>:
 80005e4:	2310      	movs	r3, #16
 80005e6:	4a06      	ldr	r2, [pc, #24]	; (8000600 <HAL_Init+0x1c>)
 80005e8:	b510      	push	{r4, lr}
 80005ea:	6811      	ldr	r1, [r2, #0]
 80005ec:	2000      	movs	r0, #0
 80005ee:	430b      	orrs	r3, r1
 80005f0:	6013      	str	r3, [r2, #0]
 80005f2:	f7ff ffd3 	bl	800059c <HAL_InitTick>
 80005f6:	f7ff fef7 	bl	80003e8 <HAL_MspInit>
 80005fa:	2000      	movs	r0, #0
 80005fc:	bd10      	pop	{r4, pc}
 80005fe:	46c0      	nop			; (mov r8, r8)
 8000600:	40022000 	.word	0x40022000

08000604 <HAL_IncTick>:
 8000604:	4a03      	ldr	r2, [pc, #12]	; (8000614 <HAL_IncTick+0x10>)
 8000606:	4b04      	ldr	r3, [pc, #16]	; (8000618 <HAL_IncTick+0x14>)
 8000608:	6811      	ldr	r1, [r2, #0]
 800060a:	781b      	ldrb	r3, [r3, #0]
 800060c:	185b      	adds	r3, r3, r1
 800060e:	6013      	str	r3, [r2, #0]
 8000610:	4770      	bx	lr
 8000612:	46c0      	nop			; (mov r8, r8)
 8000614:	20000084 	.word	0x20000084
 8000618:	2000005c 	.word	0x2000005c

0800061c <HAL_GetTick>:
 800061c:	4b01      	ldr	r3, [pc, #4]	; (8000624 <HAL_GetTick+0x8>)
 800061e:	6818      	ldr	r0, [r3, #0]
 8000620:	4770      	bx	lr
 8000622:	46c0      	nop			; (mov r8, r8)
 8000624:	20000084 	.word	0x20000084

08000628 <HAL_NVIC_SetPriority>:
 8000628:	b530      	push	{r4, r5, lr}
 800062a:	25ff      	movs	r5, #255	; 0xff
 800062c:	2403      	movs	r4, #3
 800062e:	002a      	movs	r2, r5
 8000630:	b2c3      	uxtb	r3, r0
 8000632:	401c      	ands	r4, r3
 8000634:	00e4      	lsls	r4, r4, #3
 8000636:	40a2      	lsls	r2, r4
 8000638:	0189      	lsls	r1, r1, #6
 800063a:	4029      	ands	r1, r5
 800063c:	43d2      	mvns	r2, r2
 800063e:	40a1      	lsls	r1, r4
 8000640:	2800      	cmp	r0, #0
 8000642:	db0a      	blt.n	800065a <HAL_NVIC_SetPriority+0x32>
 8000644:	24c0      	movs	r4, #192	; 0xc0
 8000646:	4b0b      	ldr	r3, [pc, #44]	; (8000674 <HAL_NVIC_SetPriority+0x4c>)
 8000648:	0880      	lsrs	r0, r0, #2
 800064a:	0080      	lsls	r0, r0, #2
 800064c:	18c0      	adds	r0, r0, r3
 800064e:	00a4      	lsls	r4, r4, #2
 8000650:	5903      	ldr	r3, [r0, r4]
 8000652:	401a      	ands	r2, r3
 8000654:	4311      	orrs	r1, r2
 8000656:	5101      	str	r1, [r0, r4]
 8000658:	bd30      	pop	{r4, r5, pc}
 800065a:	200f      	movs	r0, #15
 800065c:	4003      	ands	r3, r0
 800065e:	3b08      	subs	r3, #8
 8000660:	4805      	ldr	r0, [pc, #20]	; (8000678 <HAL_NVIC_SetPriority+0x50>)
 8000662:	089b      	lsrs	r3, r3, #2
 8000664:	009b      	lsls	r3, r3, #2
 8000666:	181b      	adds	r3, r3, r0
 8000668:	69d8      	ldr	r0, [r3, #28]
 800066a:	4002      	ands	r2, r0
 800066c:	4311      	orrs	r1, r2
 800066e:	61d9      	str	r1, [r3, #28]
 8000670:	e7f2      	b.n	8000658 <HAL_NVIC_SetPriority+0x30>
 8000672:	46c0      	nop			; (mov r8, r8)
 8000674:	e000e100 	.word	0xe000e100
 8000678:	e000ed00 	.word	0xe000ed00

0800067c <HAL_NVIC_EnableIRQ>:
 800067c:	2800      	cmp	r0, #0
 800067e:	db05      	blt.n	800068c <HAL_NVIC_EnableIRQ+0x10>
 8000680:	231f      	movs	r3, #31
 8000682:	4018      	ands	r0, r3
 8000684:	3b1e      	subs	r3, #30
 8000686:	4083      	lsls	r3, r0
 8000688:	4a01      	ldr	r2, [pc, #4]	; (8000690 <HAL_NVIC_EnableIRQ+0x14>)
 800068a:	6013      	str	r3, [r2, #0]
 800068c:	4770      	bx	lr
 800068e:	46c0      	nop			; (mov r8, r8)
 8000690:	e000e100 	.word	0xe000e100

08000694 <HAL_SYSTICK_Config>:
 8000694:	4a09      	ldr	r2, [pc, #36]	; (80006bc <HAL_SYSTICK_Config+0x28>)
 8000696:	1e43      	subs	r3, r0, #1
 8000698:	2001      	movs	r0, #1
 800069a:	4293      	cmp	r3, r2
 800069c:	d80d      	bhi.n	80006ba <HAL_SYSTICK_Config+0x26>
 800069e:	21c0      	movs	r1, #192	; 0xc0
 80006a0:	4a07      	ldr	r2, [pc, #28]	; (80006c0 <HAL_SYSTICK_Config+0x2c>)
 80006a2:	4808      	ldr	r0, [pc, #32]	; (80006c4 <HAL_SYSTICK_Config+0x30>)
 80006a4:	6053      	str	r3, [r2, #4]
 80006a6:	6a03      	ldr	r3, [r0, #32]
 80006a8:	0609      	lsls	r1, r1, #24
 80006aa:	021b      	lsls	r3, r3, #8
 80006ac:	0a1b      	lsrs	r3, r3, #8
 80006ae:	430b      	orrs	r3, r1
 80006b0:	6203      	str	r3, [r0, #32]
 80006b2:	2000      	movs	r0, #0
 80006b4:	2307      	movs	r3, #7
 80006b6:	6090      	str	r0, [r2, #8]
 80006b8:	6013      	str	r3, [r2, #0]
 80006ba:	4770      	bx	lr
 80006bc:	00ffffff 	.word	0x00ffffff
 80006c0:	e000e010 	.word	0xe000e010
 80006c4:	e000ed00 	.word	0xe000ed00

080006c8 <HAL_GPIO_Init>:
 80006c8:	b5f0      	push	{r4, r5, r6, r7, lr}
 80006ca:	680b      	ldr	r3, [r1, #0]
 80006cc:	b087      	sub	sp, #28
 80006ce:	9303      	str	r3, [sp, #12]
 80006d0:	2300      	movs	r3, #0
 80006d2:	9101      	str	r1, [sp, #4]
 80006d4:	9a03      	ldr	r2, [sp, #12]
 80006d6:	40da      	lsrs	r2, r3
 80006d8:	d101      	bne.n	80006de <HAL_GPIO_Init+0x16>
 80006da:	b007      	add	sp, #28
 80006dc:	bdf0      	pop	{r4, r5, r6, r7, pc}
 80006de:	2201      	movs	r2, #1
 80006e0:	409a      	lsls	r2, r3
 80006e2:	9202      	str	r2, [sp, #8]
 80006e4:	9902      	ldr	r1, [sp, #8]
 80006e6:	9a03      	ldr	r2, [sp, #12]
 80006e8:	400a      	ands	r2, r1
 80006ea:	9200      	str	r2, [sp, #0]
 80006ec:	d100      	bne.n	80006f0 <HAL_GPIO_Init+0x28>
 80006ee:	e08c      	b.n	800080a <HAL_GPIO_Init+0x142>
 80006f0:	9a01      	ldr	r2, [sp, #4]
 80006f2:	2110      	movs	r1, #16
 80006f4:	6852      	ldr	r2, [r2, #4]
 80006f6:	0016      	movs	r6, r2
 80006f8:	438e      	bics	r6, r1
 80006fa:	2e02      	cmp	r6, #2
 80006fc:	d10e      	bne.n	800071c <HAL_GPIO_Init+0x54>
 80006fe:	2507      	movs	r5, #7
 8000700:	401d      	ands	r5, r3
 8000702:	00ad      	lsls	r5, r5, #2
 8000704:	3901      	subs	r1, #1
 8000706:	40a9      	lsls	r1, r5
 8000708:	08dc      	lsrs	r4, r3, #3
 800070a:	00a4      	lsls	r4, r4, #2
 800070c:	1904      	adds	r4, r0, r4
 800070e:	6a27      	ldr	r7, [r4, #32]
 8000710:	438f      	bics	r7, r1
 8000712:	9901      	ldr	r1, [sp, #4]
 8000714:	6909      	ldr	r1, [r1, #16]
 8000716:	40a9      	lsls	r1, r5
 8000718:	430f      	orrs	r7, r1
 800071a:	6227      	str	r7, [r4, #32]
 800071c:	2403      	movs	r4, #3
 800071e:	005f      	lsls	r7, r3, #1
 8000720:	40bc      	lsls	r4, r7
 8000722:	43e4      	mvns	r4, r4
 8000724:	6805      	ldr	r5, [r0, #0]
 8000726:	3e01      	subs	r6, #1
 8000728:	4025      	ands	r5, r4
 800072a:	46ac      	mov	ip, r5
 800072c:	2503      	movs	r5, #3
 800072e:	4015      	ands	r5, r2
 8000730:	40bd      	lsls	r5, r7
 8000732:	4661      	mov	r1, ip
 8000734:	430d      	orrs	r5, r1
 8000736:	6005      	str	r5, [r0, #0]
 8000738:	2e01      	cmp	r6, #1
 800073a:	d80f      	bhi.n	800075c <HAL_GPIO_Init+0x94>
 800073c:	9901      	ldr	r1, [sp, #4]
 800073e:	6886      	ldr	r6, [r0, #8]
 8000740:	68cd      	ldr	r5, [r1, #12]
 8000742:	4026      	ands	r6, r4
 8000744:	40bd      	lsls	r5, r7
 8000746:	4335      	orrs	r5, r6
 8000748:	6085      	str	r5, [r0, #8]
 800074a:	6846      	ldr	r6, [r0, #4]
 800074c:	9902      	ldr	r1, [sp, #8]
 800074e:	0915      	lsrs	r5, r2, #4
 8000750:	438e      	bics	r6, r1
 8000752:	2101      	movs	r1, #1
 8000754:	400d      	ands	r5, r1
 8000756:	409d      	lsls	r5, r3
 8000758:	4335      	orrs	r5, r6
 800075a:	6045      	str	r5, [r0, #4]
 800075c:	68c5      	ldr	r5, [r0, #12]
 800075e:	9901      	ldr	r1, [sp, #4]
 8000760:	402c      	ands	r4, r5
 8000762:	688d      	ldr	r5, [r1, #8]
 8000764:	2180      	movs	r1, #128	; 0x80
 8000766:	40bd      	lsls	r5, r7
 8000768:	0549      	lsls	r1, r1, #21
 800076a:	432c      	orrs	r4, r5
 800076c:	60c4      	str	r4, [r0, #12]
 800076e:	420a      	tst	r2, r1
 8000770:	d04b      	beq.n	800080a <HAL_GPIO_Init+0x142>
 8000772:	2101      	movs	r1, #1
 8000774:	4c26      	ldr	r4, [pc, #152]	; (8000810 <HAL_GPIO_Init+0x148>)
 8000776:	2603      	movs	r6, #3
 8000778:	69a5      	ldr	r5, [r4, #24]
 800077a:	401e      	ands	r6, r3
 800077c:	430d      	orrs	r5, r1
 800077e:	61a5      	str	r5, [r4, #24]
 8000780:	69a4      	ldr	r4, [r4, #24]
 8000782:	089d      	lsrs	r5, r3, #2
 8000784:	400c      	ands	r4, r1
 8000786:	9405      	str	r4, [sp, #20]
 8000788:	9c05      	ldr	r4, [sp, #20]
 800078a:	240f      	movs	r4, #15
 800078c:	4921      	ldr	r1, [pc, #132]	; (8000814 <HAL_GPIO_Init+0x14c>)
 800078e:	00ad      	lsls	r5, r5, #2
 8000790:	00b6      	lsls	r6, r6, #2
 8000792:	186d      	adds	r5, r5, r1
 8000794:	40b4      	lsls	r4, r6
 8000796:	2190      	movs	r1, #144	; 0x90
 8000798:	68af      	ldr	r7, [r5, #8]
 800079a:	05c9      	lsls	r1, r1, #23
 800079c:	43a7      	bics	r7, r4
 800079e:	2400      	movs	r4, #0
 80007a0:	4288      	cmp	r0, r1
 80007a2:	d00c      	beq.n	80007be <HAL_GPIO_Init+0xf6>
 80007a4:	491c      	ldr	r1, [pc, #112]	; (8000818 <HAL_GPIO_Init+0x150>)
 80007a6:	3401      	adds	r4, #1
 80007a8:	4288      	cmp	r0, r1
 80007aa:	d008      	beq.n	80007be <HAL_GPIO_Init+0xf6>
 80007ac:	491b      	ldr	r1, [pc, #108]	; (800081c <HAL_GPIO_Init+0x154>)
 80007ae:	3401      	adds	r4, #1
 80007b0:	4288      	cmp	r0, r1
 80007b2:	d004      	beq.n	80007be <HAL_GPIO_Init+0xf6>
 80007b4:	491a      	ldr	r1, [pc, #104]	; (8000820 <HAL_GPIO_Init+0x158>)
 80007b6:	3403      	adds	r4, #3
 80007b8:	4288      	cmp	r0, r1
 80007ba:	d100      	bne.n	80007be <HAL_GPIO_Init+0xf6>
 80007bc:	3c02      	subs	r4, #2
 80007be:	40b4      	lsls	r4, r6
 80007c0:	9900      	ldr	r1, [sp, #0]
 80007c2:	433c      	orrs	r4, r7
 80007c4:	000e      	movs	r6, r1
 80007c6:	60ac      	str	r4, [r5, #8]
 80007c8:	4c16      	ldr	r4, [pc, #88]	; (8000824 <HAL_GPIO_Init+0x15c>)
 80007ca:	43cd      	mvns	r5, r1
 80007cc:	6827      	ldr	r7, [r4, #0]
 80007ce:	433e      	orrs	r6, r7
 80007d0:	03d1      	lsls	r1, r2, #15
 80007d2:	d401      	bmi.n	80007d8 <HAL_GPIO_Init+0x110>
 80007d4:	003e      	movs	r6, r7
 80007d6:	402e      	ands	r6, r5
 80007d8:	6026      	str	r6, [r4, #0]
 80007da:	6867      	ldr	r7, [r4, #4]
 80007dc:	9e00      	ldr	r6, [sp, #0]
 80007de:	433e      	orrs	r6, r7
 80007e0:	0391      	lsls	r1, r2, #14
 80007e2:	d401      	bmi.n	80007e8 <HAL_GPIO_Init+0x120>
 80007e4:	003e      	movs	r6, r7
 80007e6:	402e      	ands	r6, r5
 80007e8:	6066      	str	r6, [r4, #4]
 80007ea:	68a7      	ldr	r7, [r4, #8]
 80007ec:	9e00      	ldr	r6, [sp, #0]
 80007ee:	433e      	orrs	r6, r7
 80007f0:	02d1      	lsls	r1, r2, #11
 80007f2:	d401      	bmi.n	80007f8 <HAL_GPIO_Init+0x130>
 80007f4:	003e      	movs	r6, r7
 80007f6:	402e      	ands	r6, r5
 80007f8:	60a6      	str	r6, [r4, #8]
 80007fa:	68e6      	ldr	r6, [r4, #12]
 80007fc:	9f00      	ldr	r7, [sp, #0]
 80007fe:	4337      	orrs	r7, r6
 8000800:	0292      	lsls	r2, r2, #10
 8000802:	d401      	bmi.n	8000808 <HAL_GPIO_Init+0x140>
 8000804:	402e      	ands	r6, r5
 8000806:	0037      	movs	r7, r6
 8000808:	60e7      	str	r7, [r4, #12]
 800080a:	3301      	adds	r3, #1
 800080c:	e762      	b.n	80006d4 <HAL_GPIO_Init+0xc>
 800080e:	46c0      	nop			; (mov r8, r8)
 8000810:	40021000 	.word	0x40021000
 8000814:	40010000 	.word	0x40010000
 8000818:	48000400 	.word	0x48000400
 800081c:	48000800 	.word	0x48000800
 8000820:	48000c00 	.word	0x48000c00
 8000824:	40010400 	.word	0x40010400

08000828 <HAL_GPIO_WritePin>:
 8000828:	2a00      	cmp	r2, #0
 800082a:	d001      	beq.n	8000830 <HAL_GPIO_WritePin+0x8>
 800082c:	6181      	str	r1, [r0, #24]
 800082e:	4770      	bx	lr
 8000830:	6281      	str	r1, [r0, #40]	; 0x28
 8000832:	e7fc      	b.n	800082e <HAL_GPIO_WritePin+0x6>

08000834 <HAL_GPIO_EXTI_Callback>:
 8000834:	4770      	bx	lr
	...

08000838 <HAL_GPIO_EXTI_IRQHandler>:
 8000838:	4b04      	ldr	r3, [pc, #16]	; (800084c <HAL_GPIO_EXTI_IRQHandler+0x14>)
 800083a:	b510      	push	{r4, lr}
 800083c:	695a      	ldr	r2, [r3, #20]
 800083e:	4210      	tst	r0, r2
 8000840:	d002      	beq.n	8000848 <HAL_GPIO_EXTI_IRQHandler+0x10>
 8000842:	6158      	str	r0, [r3, #20]
 8000844:	f7ff fff6 	bl	8000834 <HAL_GPIO_EXTI_Callback>
 8000848:	bd10      	pop	{r4, pc}
 800084a:	46c0      	nop			; (mov r8, r8)
 800084c:	40010400 	.word	0x40010400

08000850 <HAL_RCC_OscConfig>:
 8000850:	b5f0      	push	{r4, r5, r6, r7, lr}
 8000852:	0004      	movs	r4, r0
 8000854:	b085      	sub	sp, #20
 8000856:	2800      	cmp	r0, #0
 8000858:	d102      	bne.n	8000860 <HAL_RCC_OscConfig+0x10>
 800085a:	2001      	movs	r0, #1
 800085c:	b005      	add	sp, #20
 800085e:	bdf0      	pop	{r4, r5, r6, r7, pc}
 8000860:	6803      	ldr	r3, [r0, #0]
 8000862:	07db      	lsls	r3, r3, #31
 8000864:	d42e      	bmi.n	80008c4 <HAL_RCC_OscConfig+0x74>
 8000866:	6823      	ldr	r3, [r4, #0]
 8000868:	079b      	lsls	r3, r3, #30
 800086a:	d47e      	bmi.n	800096a <HAL_RCC_OscConfig+0x11a>
 800086c:	6823      	ldr	r3, [r4, #0]
 800086e:	071b      	lsls	r3, r3, #28
 8000870:	d500      	bpl.n	8000874 <HAL_RCC_OscConfig+0x24>
 8000872:	e0ba      	b.n	80009ea <HAL_RCC_OscConfig+0x19a>
 8000874:	6823      	ldr	r3, [r4, #0]
 8000876:	075b      	lsls	r3, r3, #29
 8000878:	d500      	bpl.n	800087c <HAL_RCC_OscConfig+0x2c>
 800087a:	e0dd      	b.n	8000a38 <HAL_RCC_OscConfig+0x1e8>
 800087c:	6823      	ldr	r3, [r4, #0]
 800087e:	06db      	lsls	r3, r3, #27
 8000880:	d51a      	bpl.n	80008b8 <HAL_RCC_OscConfig+0x68>
 8000882:	6962      	ldr	r2, [r4, #20]
 8000884:	4db4      	ldr	r5, [pc, #720]	; (8000b58 <HAL_RCC_OscConfig+0x308>)
 8000886:	2304      	movs	r3, #4
 8000888:	2a01      	cmp	r2, #1
 800088a:	d000      	beq.n	800088e <HAL_RCC_OscConfig+0x3e>
 800088c:	e149      	b.n	8000b22 <HAL_RCC_OscConfig+0x2d2>
 800088e:	6b69      	ldr	r1, [r5, #52]	; 0x34
 8000890:	2602      	movs	r6, #2
 8000892:	430b      	orrs	r3, r1
 8000894:	636b      	str	r3, [r5, #52]	; 0x34
 8000896:	6b6b      	ldr	r3, [r5, #52]	; 0x34
 8000898:	431a      	orrs	r2, r3
 800089a:	636a      	str	r2, [r5, #52]	; 0x34
 800089c:	f7ff febe 	bl	800061c <HAL_GetTick>
 80008a0:	0007      	movs	r7, r0
 80008a2:	6b6b      	ldr	r3, [r5, #52]	; 0x34
 80008a4:	4233      	tst	r3, r6
 80008a6:	d100      	bne.n	80008aa <HAL_RCC_OscConfig+0x5a>
 80008a8:	e134      	b.n	8000b14 <HAL_RCC_OscConfig+0x2c4>
 80008aa:	21f8      	movs	r1, #248	; 0xf8
 80008ac:	6b6a      	ldr	r2, [r5, #52]	; 0x34
 80008ae:	69a3      	ldr	r3, [r4, #24]
 80008b0:	438a      	bics	r2, r1
 80008b2:	00db      	lsls	r3, r3, #3
 80008b4:	4313      	orrs	r3, r2
 80008b6:	636b      	str	r3, [r5, #52]	; 0x34
 80008b8:	6a23      	ldr	r3, [r4, #32]
 80008ba:	2b00      	cmp	r3, #0
 80008bc:	d000      	beq.n	80008c0 <HAL_RCC_OscConfig+0x70>
 80008be:	e157      	b.n	8000b70 <HAL_RCC_OscConfig+0x320>
 80008c0:	2000      	movs	r0, #0
 80008c2:	e7cb      	b.n	800085c <HAL_RCC_OscConfig+0xc>
 80008c4:	210c      	movs	r1, #12
 80008c6:	4da4      	ldr	r5, [pc, #656]	; (8000b58 <HAL_RCC_OscConfig+0x308>)
 80008c8:	686a      	ldr	r2, [r5, #4]
 80008ca:	400a      	ands	r2, r1
 80008cc:	2a04      	cmp	r2, #4
 80008ce:	d006      	beq.n	80008de <HAL_RCC_OscConfig+0x8e>
 80008d0:	686b      	ldr	r3, [r5, #4]
 80008d2:	400b      	ands	r3, r1
 80008d4:	2b08      	cmp	r3, #8
 80008d6:	d109      	bne.n	80008ec <HAL_RCC_OscConfig+0x9c>
 80008d8:	686b      	ldr	r3, [r5, #4]
 80008da:	03db      	lsls	r3, r3, #15
 80008dc:	d506      	bpl.n	80008ec <HAL_RCC_OscConfig+0x9c>
 80008de:	682b      	ldr	r3, [r5, #0]
 80008e0:	039b      	lsls	r3, r3, #14
 80008e2:	d5c0      	bpl.n	8000866 <HAL_RCC_OscConfig+0x16>
 80008e4:	6863      	ldr	r3, [r4, #4]
 80008e6:	2b00      	cmp	r3, #0
 80008e8:	d1bd      	bne.n	8000866 <HAL_RCC_OscConfig+0x16>
 80008ea:	e7b6      	b.n	800085a <HAL_RCC_OscConfig+0xa>
 80008ec:	6863      	ldr	r3, [r4, #4]
 80008ee:	2b01      	cmp	r3, #1
 80008f0:	d113      	bne.n	800091a <HAL_RCC_OscConfig+0xca>
 80008f2:	2380      	movs	r3, #128	; 0x80
 80008f4:	682a      	ldr	r2, [r5, #0]
 80008f6:	025b      	lsls	r3, r3, #9
 80008f8:	4313      	orrs	r3, r2
 80008fa:	602b      	str	r3, [r5, #0]
 80008fc:	f7ff fe8e 	bl	800061c <HAL_GetTick>
 8000900:	2680      	movs	r6, #128	; 0x80
 8000902:	0007      	movs	r7, r0
 8000904:	02b6      	lsls	r6, r6, #10
 8000906:	682b      	ldr	r3, [r5, #0]
 8000908:	4233      	tst	r3, r6
 800090a:	d1ac      	bne.n	8000866 <HAL_RCC_OscConfig+0x16>
 800090c:	f7ff fe86 	bl	800061c <HAL_GetTick>
 8000910:	1bc0      	subs	r0, r0, r7
 8000912:	2864      	cmp	r0, #100	; 0x64
 8000914:	d9f7      	bls.n	8000906 <HAL_RCC_OscConfig+0xb6>
 8000916:	2003      	movs	r0, #3
 8000918:	e7a0      	b.n	800085c <HAL_RCC_OscConfig+0xc>
 800091a:	2b00      	cmp	r3, #0
 800091c:	d115      	bne.n	800094a <HAL_RCC_OscConfig+0xfa>
 800091e:	682b      	ldr	r3, [r5, #0]
 8000920:	4a8e      	ldr	r2, [pc, #568]	; (8000b5c <HAL_RCC_OscConfig+0x30c>)
 8000922:	2680      	movs	r6, #128	; 0x80
 8000924:	4013      	ands	r3, r2
 8000926:	602b      	str	r3, [r5, #0]
 8000928:	682b      	ldr	r3, [r5, #0]
 800092a:	4a8d      	ldr	r2, [pc, #564]	; (8000b60 <HAL_RCC_OscConfig+0x310>)
 800092c:	02b6      	lsls	r6, r6, #10
 800092e:	4013      	ands	r3, r2
 8000930:	602b      	str	r3, [r5, #0]
 8000932:	f7ff fe73 	bl	800061c <HAL_GetTick>
 8000936:	0007      	movs	r7, r0
 8000938:	682b      	ldr	r3, [r5, #0]
 800093a:	4233      	tst	r3, r6
 800093c:	d093      	beq.n	8000866 <HAL_RCC_OscConfig+0x16>
 800093e:	f7ff fe6d 	bl	800061c <HAL_GetTick>
 8000942:	1bc0      	subs	r0, r0, r7
 8000944:	2864      	cmp	r0, #100	; 0x64
 8000946:	d9f7      	bls.n	8000938 <HAL_RCC_OscConfig+0xe8>
 8000948:	e7e5      	b.n	8000916 <HAL_RCC_OscConfig+0xc6>
 800094a:	2b05      	cmp	r3, #5
 800094c:	d105      	bne.n	800095a <HAL_RCC_OscConfig+0x10a>
 800094e:	2380      	movs	r3, #128	; 0x80
 8000950:	682a      	ldr	r2, [r5, #0]
 8000952:	02db      	lsls	r3, r3, #11
 8000954:	4313      	orrs	r3, r2
 8000956:	602b      	str	r3, [r5, #0]
 8000958:	e7cb      	b.n	80008f2 <HAL_RCC_OscConfig+0xa2>
 800095a:	682b      	ldr	r3, [r5, #0]
 800095c:	4a7f      	ldr	r2, [pc, #508]	; (8000b5c <HAL_RCC_OscConfig+0x30c>)
 800095e:	4013      	ands	r3, r2
 8000960:	602b      	str	r3, [r5, #0]
 8000962:	682b      	ldr	r3, [r5, #0]
 8000964:	4a7e      	ldr	r2, [pc, #504]	; (8000b60 <HAL_RCC_OscConfig+0x310>)
 8000966:	4013      	ands	r3, r2
 8000968:	e7c7      	b.n	80008fa <HAL_RCC_OscConfig+0xaa>
 800096a:	220c      	movs	r2, #12
 800096c:	4d7a      	ldr	r5, [pc, #488]	; (8000b58 <HAL_RCC_OscConfig+0x308>)
 800096e:	686b      	ldr	r3, [r5, #4]
 8000970:	4213      	tst	r3, r2
 8000972:	d006      	beq.n	8000982 <HAL_RCC_OscConfig+0x132>
 8000974:	686b      	ldr	r3, [r5, #4]
 8000976:	4013      	ands	r3, r2
 8000978:	2b08      	cmp	r3, #8
 800097a:	d111      	bne.n	80009a0 <HAL_RCC_OscConfig+0x150>
 800097c:	686b      	ldr	r3, [r5, #4]
 800097e:	03db      	lsls	r3, r3, #15
 8000980:	d40e      	bmi.n	80009a0 <HAL_RCC_OscConfig+0x150>
 8000982:	682b      	ldr	r3, [r5, #0]
 8000984:	079b      	lsls	r3, r3, #30
 8000986:	d503      	bpl.n	8000990 <HAL_RCC_OscConfig+0x140>
 8000988:	68e3      	ldr	r3, [r4, #12]
 800098a:	2b01      	cmp	r3, #1
 800098c:	d000      	beq.n	8000990 <HAL_RCC_OscConfig+0x140>
 800098e:	e764      	b.n	800085a <HAL_RCC_OscConfig+0xa>
 8000990:	21f8      	movs	r1, #248	; 0xf8
 8000992:	682a      	ldr	r2, [r5, #0]
 8000994:	6923      	ldr	r3, [r4, #16]
 8000996:	438a      	bics	r2, r1
 8000998:	00db      	lsls	r3, r3, #3
 800099a:	4313      	orrs	r3, r2
 800099c:	602b      	str	r3, [r5, #0]
 800099e:	e765      	b.n	800086c <HAL_RCC_OscConfig+0x1c>
 80009a0:	68e2      	ldr	r2, [r4, #12]
 80009a2:	2301      	movs	r3, #1
 80009a4:	2a00      	cmp	r2, #0
 80009a6:	d00f      	beq.n	80009c8 <HAL_RCC_OscConfig+0x178>
 80009a8:	682a      	ldr	r2, [r5, #0]
 80009aa:	2602      	movs	r6, #2
 80009ac:	4313      	orrs	r3, r2
 80009ae:	602b      	str	r3, [r5, #0]
 80009b0:	f7ff fe34 	bl	800061c <HAL_GetTick>
 80009b4:	0007      	movs	r7, r0
 80009b6:	682b      	ldr	r3, [r5, #0]
 80009b8:	4233      	tst	r3, r6
 80009ba:	d1e9      	bne.n	8000990 <HAL_RCC_OscConfig+0x140>
 80009bc:	f7ff fe2e 	bl	800061c <HAL_GetTick>
 80009c0:	1bc0      	subs	r0, r0, r7
 80009c2:	2802      	cmp	r0, #2
 80009c4:	d9f7      	bls.n	80009b6 <HAL_RCC_OscConfig+0x166>
 80009c6:	e7a6      	b.n	8000916 <HAL_RCC_OscConfig+0xc6>
 80009c8:	682a      	ldr	r2, [r5, #0]
 80009ca:	2602      	movs	r6, #2
 80009cc:	439a      	bics	r2, r3
 80009ce:	602a      	str	r2, [r5, #0]
 80009d0:	f7ff fe24 	bl	800061c <HAL_GetTick>
 80009d4:	0007      	movs	r7, r0
 80009d6:	682b      	ldr	r3, [r5, #0]
 80009d8:	4233      	tst	r3, r6
 80009da:	d100      	bne.n	80009de <HAL_RCC_OscConfig+0x18e>
 80009dc:	e746      	b.n	800086c <HAL_RCC_OscConfig+0x1c>
 80009de:	f7ff fe1d 	bl	800061c <HAL_GetTick>
 80009e2:	1bc0      	subs	r0, r0, r7
 80009e4:	2802      	cmp	r0, #2
 80009e6:	d9f6      	bls.n	80009d6 <HAL_RCC_OscConfig+0x186>
 80009e8:	e795      	b.n	8000916 <HAL_RCC_OscConfig+0xc6>
 80009ea:	69e2      	ldr	r2, [r4, #28]
 80009ec:	2301      	movs	r3, #1
 80009ee:	4d5a      	ldr	r5, [pc, #360]	; (8000b58 <HAL_RCC_OscConfig+0x308>)
 80009f0:	2a00      	cmp	r2, #0
 80009f2:	d010      	beq.n	8000a16 <HAL_RCC_OscConfig+0x1c6>
 80009f4:	6a6a      	ldr	r2, [r5, #36]	; 0x24
 80009f6:	2602      	movs	r6, #2
 80009f8:	4313      	orrs	r3, r2
 80009fa:	626b      	str	r3, [r5, #36]	; 0x24
 80009fc:	f7ff fe0e 	bl	800061c <HAL_GetTick>
 8000a00:	0007      	movs	r7, r0
 8000a02:	6a6b      	ldr	r3, [r5, #36]	; 0x24
 8000a04:	4233      	tst	r3, r6
 8000a06:	d000      	beq.n	8000a0a <HAL_RCC_OscConfig+0x1ba>
 8000a08:	e734      	b.n	8000874 <HAL_RCC_OscConfig+0x24>
 8000a0a:	f7ff fe07 	bl	800061c <HAL_GetTick>
 8000a0e:	1bc0      	subs	r0, r0, r7
 8000a10:	2802      	cmp	r0, #2
 8000a12:	d9f6      	bls.n	8000a02 <HAL_RCC_OscConfig+0x1b2>
 8000a14:	e77f      	b.n	8000916 <HAL_RCC_OscConfig+0xc6>
 8000a16:	6a6a      	ldr	r2, [r5, #36]	; 0x24
 8000a18:	2602      	movs	r6, #2
 8000a1a:	439a      	bics	r2, r3
 8000a1c:	626a      	str	r2, [r5, #36]	; 0x24
 8000a1e:	f7ff fdfd 	bl	800061c <HAL_GetTick>
 8000a22:	0007      	movs	r7, r0
 8000a24:	6a6b      	ldr	r3, [r5, #36]	; 0x24
 8000a26:	4233      	tst	r3, r6
 8000a28:	d100      	bne.n	8000a2c <HAL_RCC_OscConfig+0x1dc>
 8000a2a:	e723      	b.n	8000874 <HAL_RCC_OscConfig+0x24>
 8000a2c:	f7ff fdf6 	bl	800061c <HAL_GetTick>
 8000a30:	1bc0      	subs	r0, r0, r7
 8000a32:	2802      	cmp	r0, #2
 8000a34:	d9f6      	bls.n	8000a24 <HAL_RCC_OscConfig+0x1d4>
 8000a36:	e76e      	b.n	8000916 <HAL_RCC_OscConfig+0xc6>
 8000a38:	2280      	movs	r2, #128	; 0x80
 8000a3a:	2100      	movs	r1, #0
 8000a3c:	4d46      	ldr	r5, [pc, #280]	; (8000b58 <HAL_RCC_OscConfig+0x308>)
 8000a3e:	0552      	lsls	r2, r2, #21
 8000a40:	69eb      	ldr	r3, [r5, #28]
 8000a42:	9100      	str	r1, [sp, #0]
 8000a44:	4213      	tst	r3, r2
 8000a46:	d108      	bne.n	8000a5a <HAL_RCC_OscConfig+0x20a>
 8000a48:	69eb      	ldr	r3, [r5, #28]
 8000a4a:	4313      	orrs	r3, r2
 8000a4c:	61eb      	str	r3, [r5, #28]
 8000a4e:	69eb      	ldr	r3, [r5, #28]
 8000a50:	4013      	ands	r3, r2
 8000a52:	9303      	str	r3, [sp, #12]
 8000a54:	9b03      	ldr	r3, [sp, #12]
 8000a56:	2301      	movs	r3, #1
 8000a58:	9300      	str	r3, [sp, #0]
 8000a5a:	2780      	movs	r7, #128	; 0x80
 8000a5c:	4e41      	ldr	r6, [pc, #260]	; (8000b64 <HAL_RCC_OscConfig+0x314>)
 8000a5e:	007f      	lsls	r7, r7, #1
 8000a60:	6833      	ldr	r3, [r6, #0]
 8000a62:	423b      	tst	r3, r7
 8000a64:	d006      	beq.n	8000a74 <HAL_RCC_OscConfig+0x224>
 8000a66:	68a3      	ldr	r3, [r4, #8]
 8000a68:	2b01      	cmp	r3, #1
 8000a6a:	d113      	bne.n	8000a94 <HAL_RCC_OscConfig+0x244>
 8000a6c:	6a2a      	ldr	r2, [r5, #32]
 8000a6e:	4313      	orrs	r3, r2
 8000a70:	622b      	str	r3, [r5, #32]
 8000a72:	e030      	b.n	8000ad6 <HAL_RCC_OscConfig+0x286>
 8000a74:	6833      	ldr	r3, [r6, #0]
 8000a76:	433b      	orrs	r3, r7
 8000a78:	6033      	str	r3, [r6, #0]
 8000a7a:	f7ff fdcf 	bl	800061c <HAL_GetTick>
 8000a7e:	9001      	str	r0, [sp, #4]
 8000a80:	6833      	ldr	r3, [r6, #0]
 8000a82:	423b      	tst	r3, r7
 8000a84:	d1ef      	bne.n	8000a66 <HAL_RCC_OscConfig+0x216>
 8000a86:	f7ff fdc9 	bl	800061c <HAL_GetTick>
 8000a8a:	9b01      	ldr	r3, [sp, #4]
 8000a8c:	1ac0      	subs	r0, r0, r3
 8000a8e:	2864      	cmp	r0, #100	; 0x64
 8000a90:	d9f6      	bls.n	8000a80 <HAL_RCC_OscConfig+0x230>
 8000a92:	e740      	b.n	8000916 <HAL_RCC_OscConfig+0xc6>
 8000a94:	2201      	movs	r2, #1
 8000a96:	2b00      	cmp	r3, #0
 8000a98:	d114      	bne.n	8000ac4 <HAL_RCC_OscConfig+0x274>
 8000a9a:	6a2b      	ldr	r3, [r5, #32]
 8000a9c:	2702      	movs	r7, #2
 8000a9e:	4393      	bics	r3, r2
 8000aa0:	622b      	str	r3, [r5, #32]
 8000aa2:	6a2b      	ldr	r3, [r5, #32]
 8000aa4:	3203      	adds	r2, #3
 8000aa6:	4393      	bics	r3, r2
 8000aa8:	622b      	str	r3, [r5, #32]
 8000aaa:	f7ff fdb7 	bl	800061c <HAL_GetTick>
 8000aae:	0006      	movs	r6, r0
 8000ab0:	6a2b      	ldr	r3, [r5, #32]
 8000ab2:	423b      	tst	r3, r7
 8000ab4:	d025      	beq.n	8000b02 <HAL_RCC_OscConfig+0x2b2>
 8000ab6:	f7ff fdb1 	bl	800061c <HAL_GetTick>
 8000aba:	4b2b      	ldr	r3, [pc, #172]	; (8000b68 <HAL_RCC_OscConfig+0x318>)
 8000abc:	1b80      	subs	r0, r0, r6
 8000abe:	4298      	cmp	r0, r3
 8000ac0:	d9f6      	bls.n	8000ab0 <HAL_RCC_OscConfig+0x260>
 8000ac2:	e728      	b.n	8000916 <HAL_RCC_OscConfig+0xc6>
 8000ac4:	2b05      	cmp	r3, #5
 8000ac6:	d10b      	bne.n	8000ae0 <HAL_RCC_OscConfig+0x290>
 8000ac8:	6a29      	ldr	r1, [r5, #32]
 8000aca:	3b01      	subs	r3, #1
 8000acc:	430b      	orrs	r3, r1
 8000ace:	622b      	str	r3, [r5, #32]
 8000ad0:	6a2b      	ldr	r3, [r5, #32]
 8000ad2:	431a      	orrs	r2, r3
 8000ad4:	622a      	str	r2, [r5, #32]
 8000ad6:	f7ff fda1 	bl	800061c <HAL_GetTick>
 8000ada:	2702      	movs	r7, #2
 8000adc:	0006      	movs	r6, r0
 8000ade:	e00d      	b.n	8000afc <HAL_RCC_OscConfig+0x2ac>
 8000ae0:	6a2b      	ldr	r3, [r5, #32]
 8000ae2:	4393      	bics	r3, r2
 8000ae4:	2204      	movs	r2, #4
 8000ae6:	622b      	str	r3, [r5, #32]
 8000ae8:	6a2b      	ldr	r3, [r5, #32]
 8000aea:	4393      	bics	r3, r2
 8000aec:	e7c0      	b.n	8000a70 <HAL_RCC_OscConfig+0x220>
 8000aee:	f7ff fd95 	bl	800061c <HAL_GetTick>
 8000af2:	4b1d      	ldr	r3, [pc, #116]	; (8000b68 <HAL_RCC_OscConfig+0x318>)
 8000af4:	1b80      	subs	r0, r0, r6
 8000af6:	4298      	cmp	r0, r3
 8000af8:	d900      	bls.n	8000afc <HAL_RCC_OscConfig+0x2ac>
 8000afa:	e70c      	b.n	8000916 <HAL_RCC_OscConfig+0xc6>
 8000afc:	6a2b      	ldr	r3, [r5, #32]
 8000afe:	423b      	tst	r3, r7
 8000b00:	d0f5      	beq.n	8000aee <HAL_RCC_OscConfig+0x29e>
 8000b02:	9b00      	ldr	r3, [sp, #0]
 8000b04:	2b01      	cmp	r3, #1
 8000b06:	d000      	beq.n	8000b0a <HAL_RCC_OscConfig+0x2ba>
 8000b08:	e6b8      	b.n	800087c <HAL_RCC_OscConfig+0x2c>
 8000b0a:	69eb      	ldr	r3, [r5, #28]
 8000b0c:	4a17      	ldr	r2, [pc, #92]	; (8000b6c <HAL_RCC_OscConfig+0x31c>)
 8000b0e:	4013      	ands	r3, r2
 8000b10:	61eb      	str	r3, [r5, #28]
 8000b12:	e6b3      	b.n	800087c <HAL_RCC_OscConfig+0x2c>
 8000b14:	f7ff fd82 	bl	800061c <HAL_GetTick>
 8000b18:	1bc0      	subs	r0, r0, r7
 8000b1a:	2802      	cmp	r0, #2
 8000b1c:	d800      	bhi.n	8000b20 <HAL_RCC_OscConfig+0x2d0>
 8000b1e:	e6c0      	b.n	80008a2 <HAL_RCC_OscConfig+0x52>
 8000b20:	e6f9      	b.n	8000916 <HAL_RCC_OscConfig+0xc6>
 8000b22:	3205      	adds	r2, #5
 8000b24:	d103      	bne.n	8000b2e <HAL_RCC_OscConfig+0x2de>
 8000b26:	6b6a      	ldr	r2, [r5, #52]	; 0x34
 8000b28:	439a      	bics	r2, r3
 8000b2a:	636a      	str	r2, [r5, #52]	; 0x34
 8000b2c:	e6bd      	b.n	80008aa <HAL_RCC_OscConfig+0x5a>
 8000b2e:	6b6a      	ldr	r2, [r5, #52]	; 0x34
 8000b30:	2602      	movs	r6, #2
 8000b32:	4313      	orrs	r3, r2
 8000b34:	2201      	movs	r2, #1
 8000b36:	636b      	str	r3, [r5, #52]	; 0x34
 8000b38:	6b6b      	ldr	r3, [r5, #52]	; 0x34
 8000b3a:	4393      	bics	r3, r2
 8000b3c:	636b      	str	r3, [r5, #52]	; 0x34
 8000b3e:	f7ff fd6d 	bl	800061c <HAL_GetTick>
 8000b42:	0007      	movs	r7, r0
 8000b44:	6b6b      	ldr	r3, [r5, #52]	; 0x34
 8000b46:	4233      	tst	r3, r6
 8000b48:	d100      	bne.n	8000b4c <HAL_RCC_OscConfig+0x2fc>
 8000b4a:	e6b5      	b.n	80008b8 <HAL_RCC_OscConfig+0x68>
 8000b4c:	f7ff fd66 	bl	800061c <HAL_GetTick>
 8000b50:	1bc0      	subs	r0, r0, r7
 8000b52:	2802      	cmp	r0, #2
 8000b54:	d9f6      	bls.n	8000b44 <HAL_RCC_OscConfig+0x2f4>
 8000b56:	e6de      	b.n	8000916 <HAL_RCC_OscConfig+0xc6>
 8000b58:	40021000 	.word	0x40021000
 8000b5c:	fffeffff 	.word	0xfffeffff
 8000b60:	fffbffff 	.word	0xfffbffff
 8000b64:	40007000 	.word	0x40007000
 8000b68:	00001388 	.word	0x00001388
 8000b6c:	efffffff 	.word	0xefffffff
 8000b70:	200c      	movs	r0, #12
 8000b72:	4a35      	ldr	r2, [pc, #212]	; (8000c48 <HAL_RCC_OscConfig+0x3f8>)
 8000b74:	6851      	ldr	r1, [r2, #4]
 8000b76:	0015      	movs	r5, r2
 8000b78:	4001      	ands	r1, r0
 8000b7a:	2908      	cmp	r1, #8
 8000b7c:	d047      	beq.n	8000c0e <HAL_RCC_OscConfig+0x3be>
 8000b7e:	4a33      	ldr	r2, [pc, #204]	; (8000c4c <HAL_RCC_OscConfig+0x3fc>)
 8000b80:	2b02      	cmp	r3, #2
 8000b82:	d132      	bne.n	8000bea <HAL_RCC_OscConfig+0x39a>
 8000b84:	682b      	ldr	r3, [r5, #0]
 8000b86:	2680      	movs	r6, #128	; 0x80
 8000b88:	4013      	ands	r3, r2
 8000b8a:	602b      	str	r3, [r5, #0]
 8000b8c:	f7ff fd46 	bl	800061c <HAL_GetTick>
 8000b90:	0007      	movs	r7, r0
 8000b92:	04b6      	lsls	r6, r6, #18
 8000b94:	682b      	ldr	r3, [r5, #0]
 8000b96:	4233      	tst	r3, r6
 8000b98:	d121      	bne.n	8000bde <HAL_RCC_OscConfig+0x38e>
 8000b9a:	220f      	movs	r2, #15
 8000b9c:	6aeb      	ldr	r3, [r5, #44]	; 0x2c
 8000b9e:	4393      	bics	r3, r2
 8000ba0:	6ae2      	ldr	r2, [r4, #44]	; 0x2c
 8000ba2:	4313      	orrs	r3, r2
 8000ba4:	62eb      	str	r3, [r5, #44]	; 0x2c
 8000ba6:	6a61      	ldr	r1, [r4, #36]	; 0x24
 8000ba8:	6aa3      	ldr	r3, [r4, #40]	; 0x28
 8000baa:	686a      	ldr	r2, [r5, #4]
 8000bac:	430b      	orrs	r3, r1
 8000bae:	4928      	ldr	r1, [pc, #160]	; (8000c50 <HAL_RCC_OscConfig+0x400>)
 8000bb0:	2480      	movs	r4, #128	; 0x80
 8000bb2:	400a      	ands	r2, r1
 8000bb4:	4313      	orrs	r3, r2
 8000bb6:	606b      	str	r3, [r5, #4]
 8000bb8:	2380      	movs	r3, #128	; 0x80
 8000bba:	682a      	ldr	r2, [r5, #0]
 8000bbc:	045b      	lsls	r3, r3, #17
 8000bbe:	4313      	orrs	r3, r2
 8000bc0:	602b      	str	r3, [r5, #0]
 8000bc2:	f7ff fd2b 	bl	800061c <HAL_GetTick>
 8000bc6:	0006      	movs	r6, r0
 8000bc8:	04a4      	lsls	r4, r4, #18
 8000bca:	682b      	ldr	r3, [r5, #0]
 8000bcc:	4223      	tst	r3, r4
 8000bce:	d000      	beq.n	8000bd2 <HAL_RCC_OscConfig+0x382>
 8000bd0:	e676      	b.n	80008c0 <HAL_RCC_OscConfig+0x70>
 8000bd2:	f7ff fd23 	bl	800061c <HAL_GetTick>
 8000bd6:	1b80      	subs	r0, r0, r6
 8000bd8:	2802      	cmp	r0, #2
 8000bda:	d9f6      	bls.n	8000bca <HAL_RCC_OscConfig+0x37a>
 8000bdc:	e69b      	b.n	8000916 <HAL_RCC_OscConfig+0xc6>
 8000bde:	f7ff fd1d 	bl	800061c <HAL_GetTick>
 8000be2:	1bc0      	subs	r0, r0, r7
 8000be4:	2802      	cmp	r0, #2
 8000be6:	d9d5      	bls.n	8000b94 <HAL_RCC_OscConfig+0x344>
 8000be8:	e695      	b.n	8000916 <HAL_RCC_OscConfig+0xc6>
 8000bea:	682b      	ldr	r3, [r5, #0]
 8000bec:	2480      	movs	r4, #128	; 0x80
 8000bee:	4013      	ands	r3, r2
 8000bf0:	602b      	str	r3, [r5, #0]
 8000bf2:	f7ff fd13 	bl	800061c <HAL_GetTick>
 8000bf6:	0006      	movs	r6, r0
 8000bf8:	04a4      	lsls	r4, r4, #18
 8000bfa:	682b      	ldr	r3, [r5, #0]
 8000bfc:	4223      	tst	r3, r4
 8000bfe:	d100      	bne.n	8000c02 <HAL_RCC_OscConfig+0x3b2>
 8000c00:	e65e      	b.n	80008c0 <HAL_RCC_OscConfig+0x70>
 8000c02:	f7ff fd0b 	bl	800061c <HAL_GetTick>
 8000c06:	1b80      	subs	r0, r0, r6
 8000c08:	2802      	cmp	r0, #2
 8000c0a:	d9f6      	bls.n	8000bfa <HAL_RCC_OscConfig+0x3aa>
 8000c0c:	e683      	b.n	8000916 <HAL_RCC_OscConfig+0xc6>
 8000c0e:	0018      	movs	r0, r3
 8000c10:	2b01      	cmp	r3, #1
 8000c12:	d100      	bne.n	8000c16 <HAL_RCC_OscConfig+0x3c6>
 8000c14:	e622      	b.n	800085c <HAL_RCC_OscConfig+0xc>
 8000c16:	2180      	movs	r1, #128	; 0x80
 8000c18:	6853      	ldr	r3, [r2, #4]
 8000c1a:	6a65      	ldr	r5, [r4, #36]	; 0x24
 8000c1c:	0249      	lsls	r1, r1, #9
 8000c1e:	6ad2      	ldr	r2, [r2, #44]	; 0x2c
 8000c20:	4019      	ands	r1, r3
 8000c22:	2001      	movs	r0, #1
 8000c24:	42a9      	cmp	r1, r5
 8000c26:	d000      	beq.n	8000c2a <HAL_RCC_OscConfig+0x3da>
 8000c28:	e618      	b.n	800085c <HAL_RCC_OscConfig+0xc>
 8000c2a:	210f      	movs	r1, #15
 8000c2c:	400a      	ands	r2, r1
 8000c2e:	6ae1      	ldr	r1, [r4, #44]	; 0x2c
 8000c30:	428a      	cmp	r2, r1
 8000c32:	d000      	beq.n	8000c36 <HAL_RCC_OscConfig+0x3e6>
 8000c34:	e612      	b.n	800085c <HAL_RCC_OscConfig+0xc>
 8000c36:	20f0      	movs	r0, #240	; 0xf0
 8000c38:	0380      	lsls	r0, r0, #14
 8000c3a:	4003      	ands	r3, r0
 8000c3c:	6aa0      	ldr	r0, [r4, #40]	; 0x28
 8000c3e:	1a1b      	subs	r3, r3, r0
 8000c40:	1e58      	subs	r0, r3, #1
 8000c42:	4183      	sbcs	r3, r0
 8000c44:	b2d8      	uxtb	r0, r3
 8000c46:	e609      	b.n	800085c <HAL_RCC_OscConfig+0xc>
 8000c48:	40021000 	.word	0x40021000
 8000c4c:	feffffff 	.word	0xfeffffff
 8000c50:	ffc2ffff 	.word	0xffc2ffff

08000c54 <HAL_RCC_GetSysClockFreq>:
 8000c54:	b570      	push	{r4, r5, r6, lr}
 8000c56:	4c14      	ldr	r4, [pc, #80]	; (8000ca8 <HAL_RCC_GetSysClockFreq+0x54>)
 8000c58:	b088      	sub	sp, #32
 8000c5a:	2210      	movs	r2, #16
 8000c5c:	0021      	movs	r1, r4
 8000c5e:	4668      	mov	r0, sp
 8000c60:	f000 f8d2 	bl	8000e08 <memcpy>
 8000c64:	0021      	movs	r1, r4
 8000c66:	ad04      	add	r5, sp, #16
 8000c68:	2210      	movs	r2, #16
 8000c6a:	3110      	adds	r1, #16
 8000c6c:	0028      	movs	r0, r5
 8000c6e:	f000 f8cb 	bl	8000e08 <memcpy>
 8000c72:	220c      	movs	r2, #12
 8000c74:	4e0d      	ldr	r6, [pc, #52]	; (8000cac <HAL_RCC_GetSysClockFreq+0x58>)
 8000c76:	6873      	ldr	r3, [r6, #4]
 8000c78:	401a      	ands	r2, r3
 8000c7a:	2a08      	cmp	r2, #8
 8000c7c:	d111      	bne.n	8000ca2 <HAL_RCC_GetSysClockFreq+0x4e>
 8000c7e:	200f      	movs	r0, #15
 8000c80:	466a      	mov	r2, sp
 8000c82:	0c99      	lsrs	r1, r3, #18
 8000c84:	4001      	ands	r1, r0
 8000c86:	5c54      	ldrb	r4, [r2, r1]
 8000c88:	6af2      	ldr	r2, [r6, #44]	; 0x2c
 8000c8a:	4002      	ands	r2, r0
 8000c8c:	5ca9      	ldrb	r1, [r5, r2]
 8000c8e:	03db      	lsls	r3, r3, #15
 8000c90:	d505      	bpl.n	8000c9e <HAL_RCC_GetSysClockFreq+0x4a>
 8000c92:	4807      	ldr	r0, [pc, #28]	; (8000cb0 <HAL_RCC_GetSysClockFreq+0x5c>)
 8000c94:	f7ff fa42 	bl	800011c <__udivsi3>
 8000c98:	4360      	muls	r0, r4
 8000c9a:	b008      	add	sp, #32
 8000c9c:	bd70      	pop	{r4, r5, r6, pc}
 8000c9e:	4805      	ldr	r0, [pc, #20]	; (8000cb4 <HAL_RCC_GetSysClockFreq+0x60>)
 8000ca0:	e7fa      	b.n	8000c98 <HAL_RCC_GetSysClockFreq+0x44>
 8000ca2:	4803      	ldr	r0, [pc, #12]	; (8000cb0 <HAL_RCC_GetSysClockFreq+0x5c>)
 8000ca4:	e7f9      	b.n	8000c9a <HAL_RCC_GetSysClockFreq+0x46>
 8000ca6:	46c0      	nop			; (mov r8, r8)
 8000ca8:	08000e44 	.word	0x08000e44
 8000cac:	40021000 	.word	0x40021000
 8000cb0:	007a1200 	.word	0x007a1200
 8000cb4:	003d0900 	.word	0x003d0900

08000cb8 <HAL_RCC_ClockConfig>:
 8000cb8:	b5f7      	push	{r0, r1, r2, r4, r5, r6, r7, lr}
 8000cba:	0005      	movs	r5, r0
 8000cbc:	000f      	movs	r7, r1
 8000cbe:	2800      	cmp	r0, #0
 8000cc0:	d101      	bne.n	8000cc6 <HAL_RCC_ClockConfig+0xe>
 8000cc2:	2001      	movs	r0, #1
 8000cc4:	bdfe      	pop	{r1, r2, r3, r4, r5, r6, r7, pc}
 8000cc6:	2201      	movs	r2, #1
 8000cc8:	4c37      	ldr	r4, [pc, #220]	; (8000da8 <HAL_RCC_ClockConfig+0xf0>)
 8000cca:	6823      	ldr	r3, [r4, #0]
 8000ccc:	4013      	ands	r3, r2
 8000cce:	428b      	cmp	r3, r1
 8000cd0:	d31c      	bcc.n	8000d0c <HAL_RCC_ClockConfig+0x54>
 8000cd2:	6829      	ldr	r1, [r5, #0]
 8000cd4:	078b      	lsls	r3, r1, #30
 8000cd6:	d422      	bmi.n	8000d1e <HAL_RCC_ClockConfig+0x66>
 8000cd8:	07cb      	lsls	r3, r1, #31
 8000cda:	d42f      	bmi.n	8000d3c <HAL_RCC_ClockConfig+0x84>
 8000cdc:	2301      	movs	r3, #1
 8000cde:	6822      	ldr	r2, [r4, #0]
 8000ce0:	401a      	ands	r2, r3
 8000ce2:	42ba      	cmp	r2, r7
 8000ce4:	d851      	bhi.n	8000d8a <HAL_RCC_ClockConfig+0xd2>
 8000ce6:	682b      	ldr	r3, [r5, #0]
 8000ce8:	4c30      	ldr	r4, [pc, #192]	; (8000dac <HAL_RCC_ClockConfig+0xf4>)
 8000cea:	075b      	lsls	r3, r3, #29
 8000cec:	d454      	bmi.n	8000d98 <HAL_RCC_ClockConfig+0xe0>
 8000cee:	f7ff ffb1 	bl	8000c54 <HAL_RCC_GetSysClockFreq>
 8000cf2:	6863      	ldr	r3, [r4, #4]
 8000cf4:	4a2e      	ldr	r2, [pc, #184]	; (8000db0 <HAL_RCC_ClockConfig+0xf8>)
 8000cf6:	061b      	lsls	r3, r3, #24
 8000cf8:	0f1b      	lsrs	r3, r3, #28
 8000cfa:	5cd3      	ldrb	r3, [r2, r3]
 8000cfc:	40d8      	lsrs	r0, r3
 8000cfe:	4b2d      	ldr	r3, [pc, #180]	; (8000db4 <HAL_RCC_ClockConfig+0xfc>)
 8000d00:	6018      	str	r0, [r3, #0]
 8000d02:	2000      	movs	r0, #0
 8000d04:	f7ff fc4a 	bl	800059c <HAL_InitTick>
 8000d08:	2000      	movs	r0, #0
 8000d0a:	e7db      	b.n	8000cc4 <HAL_RCC_ClockConfig+0xc>
 8000d0c:	6823      	ldr	r3, [r4, #0]
 8000d0e:	4393      	bics	r3, r2
 8000d10:	430b      	orrs	r3, r1
 8000d12:	6023      	str	r3, [r4, #0]
 8000d14:	6823      	ldr	r3, [r4, #0]
 8000d16:	4013      	ands	r3, r2
 8000d18:	428b      	cmp	r3, r1
 8000d1a:	d1d2      	bne.n	8000cc2 <HAL_RCC_ClockConfig+0xa>
 8000d1c:	e7d9      	b.n	8000cd2 <HAL_RCC_ClockConfig+0x1a>
 8000d1e:	4a23      	ldr	r2, [pc, #140]	; (8000dac <HAL_RCC_ClockConfig+0xf4>)
 8000d20:	074b      	lsls	r3, r1, #29
 8000d22:	d504      	bpl.n	8000d2e <HAL_RCC_ClockConfig+0x76>
 8000d24:	23e0      	movs	r3, #224	; 0xe0
 8000d26:	6850      	ldr	r0, [r2, #4]
 8000d28:	00db      	lsls	r3, r3, #3
 8000d2a:	4303      	orrs	r3, r0
 8000d2c:	6053      	str	r3, [r2, #4]
 8000d2e:	20f0      	movs	r0, #240	; 0xf0
 8000d30:	6853      	ldr	r3, [r2, #4]
 8000d32:	4383      	bics	r3, r0
 8000d34:	68a8      	ldr	r0, [r5, #8]
 8000d36:	4303      	orrs	r3, r0
 8000d38:	6053      	str	r3, [r2, #4]
 8000d3a:	e7cd      	b.n	8000cd8 <HAL_RCC_ClockConfig+0x20>
 8000d3c:	4e1b      	ldr	r6, [pc, #108]	; (8000dac <HAL_RCC_ClockConfig+0xf4>)
 8000d3e:	686a      	ldr	r2, [r5, #4]
 8000d40:	6833      	ldr	r3, [r6, #0]
 8000d42:	2a01      	cmp	r2, #1
 8000d44:	d119      	bne.n	8000d7a <HAL_RCC_ClockConfig+0xc2>
 8000d46:	039b      	lsls	r3, r3, #14
 8000d48:	d5bb      	bpl.n	8000cc2 <HAL_RCC_ClockConfig+0xa>
 8000d4a:	2103      	movs	r1, #3
 8000d4c:	6873      	ldr	r3, [r6, #4]
 8000d4e:	438b      	bics	r3, r1
 8000d50:	4313      	orrs	r3, r2
 8000d52:	6073      	str	r3, [r6, #4]
 8000d54:	f7ff fc62 	bl	800061c <HAL_GetTick>
 8000d58:	9001      	str	r0, [sp, #4]
 8000d5a:	230c      	movs	r3, #12
 8000d5c:	6872      	ldr	r2, [r6, #4]
 8000d5e:	401a      	ands	r2, r3
 8000d60:	686b      	ldr	r3, [r5, #4]
 8000d62:	009b      	lsls	r3, r3, #2
 8000d64:	429a      	cmp	r2, r3
 8000d66:	d0b9      	beq.n	8000cdc <HAL_RCC_ClockConfig+0x24>
 8000d68:	f7ff fc58 	bl	800061c <HAL_GetTick>
 8000d6c:	9b01      	ldr	r3, [sp, #4]
 8000d6e:	1ac0      	subs	r0, r0, r3
 8000d70:	4b11      	ldr	r3, [pc, #68]	; (8000db8 <HAL_RCC_ClockConfig+0x100>)
 8000d72:	4298      	cmp	r0, r3
 8000d74:	d9f1      	bls.n	8000d5a <HAL_RCC_ClockConfig+0xa2>
 8000d76:	2003      	movs	r0, #3
 8000d78:	e7a4      	b.n	8000cc4 <HAL_RCC_ClockConfig+0xc>
 8000d7a:	2a02      	cmp	r2, #2
 8000d7c:	d102      	bne.n	8000d84 <HAL_RCC_ClockConfig+0xcc>
 8000d7e:	019b      	lsls	r3, r3, #6
 8000d80:	d4e3      	bmi.n	8000d4a <HAL_RCC_ClockConfig+0x92>
 8000d82:	e79e      	b.n	8000cc2 <HAL_RCC_ClockConfig+0xa>
 8000d84:	079b      	lsls	r3, r3, #30
 8000d86:	d4e0      	bmi.n	8000d4a <HAL_RCC_ClockConfig+0x92>
 8000d88:	e79b      	b.n	8000cc2 <HAL_RCC_ClockConfig+0xa>
 8000d8a:	6822      	ldr	r2, [r4, #0]
 8000d8c:	439a      	bics	r2, r3
 8000d8e:	6022      	str	r2, [r4, #0]
 8000d90:	6822      	ldr	r2, [r4, #0]
 8000d92:	421a      	tst	r2, r3
 8000d94:	d0a7      	beq.n	8000ce6 <HAL_RCC_ClockConfig+0x2e>
 8000d96:	e794      	b.n	8000cc2 <HAL_RCC_ClockConfig+0xa>
 8000d98:	6863      	ldr	r3, [r4, #4]
 8000d9a:	4a08      	ldr	r2, [pc, #32]	; (8000dbc <HAL_RCC_ClockConfig+0x104>)
 8000d9c:	4013      	ands	r3, r2
 8000d9e:	68ea      	ldr	r2, [r5, #12]
 8000da0:	4313      	orrs	r3, r2
 8000da2:	6063      	str	r3, [r4, #4]
 8000da4:	e7a3      	b.n	8000cee <HAL_RCC_ClockConfig+0x36>
 8000da6:	46c0      	nop			; (mov r8, r8)
 8000da8:	40022000 	.word	0x40022000
 8000dac:	40021000 	.word	0x40021000
 8000db0:	08000e68 	.word	0x08000e68
 8000db4:	20000058 	.word	0x20000058
 8000db8:	00001388 	.word	0x00001388
 8000dbc:	fffff8ff 	.word	0xfffff8ff

08000dc0 <__libc_init_array>:
 8000dc0:	b570      	push	{r4, r5, r6, lr}
 8000dc2:	2600      	movs	r6, #0
 8000dc4:	4d0c      	ldr	r5, [pc, #48]	; (8000df8 <__libc_init_array+0x38>)
 8000dc6:	4c0d      	ldr	r4, [pc, #52]	; (8000dfc <__libc_init_array+0x3c>)
 8000dc8:	1b64      	subs	r4, r4, r5
 8000dca:	10a4      	asrs	r4, r4, #2
 8000dcc:	42a6      	cmp	r6, r4
 8000dce:	d109      	bne.n	8000de4 <__libc_init_array+0x24>
 8000dd0:	2600      	movs	r6, #0
 8000dd2:	f000 f82b 	bl	8000e2c <_init>
 8000dd6:	4d0a      	ldr	r5, [pc, #40]	; (8000e00 <__libc_init_array+0x40>)
 8000dd8:	4c0a      	ldr	r4, [pc, #40]	; (8000e04 <__libc_init_array+0x44>)
 8000dda:	1b64      	subs	r4, r4, r5
 8000ddc:	10a4      	asrs	r4, r4, #2
 8000dde:	42a6      	cmp	r6, r4
 8000de0:	d105      	bne.n	8000dee <__libc_init_array+0x2e>
 8000de2:	bd70      	pop	{r4, r5, r6, pc}
 8000de4:	00b3      	lsls	r3, r6, #2
 8000de6:	58eb      	ldr	r3, [r5, r3]
 8000de8:	4798      	blx	r3
 8000dea:	3601      	adds	r6, #1
 8000dec:	e7ee      	b.n	8000dcc <__libc_init_array+0xc>
 8000dee:	00b3      	lsls	r3, r6, #2
 8000df0:	58eb      	ldr	r3, [r5, r3]
 8000df2:	4798      	blx	r3
 8000df4:	3601      	adds	r6, #1
 8000df6:	e7f2      	b.n	8000dde <__libc_init_array+0x1e>
 8000df8:	08000e78 	.word	0x08000e78
 8000dfc:	08000e78 	.word	0x08000e78
 8000e00:	08000e78 	.word	0x08000e78
 8000e04:	08000e7c 	.word	0x08000e7c

08000e08 <memcpy>:
 8000e08:	2300      	movs	r3, #0
 8000e0a:	b510      	push	{r4, lr}
 8000e0c:	429a      	cmp	r2, r3
 8000e0e:	d100      	bne.n	8000e12 <memcpy+0xa>
 8000e10:	bd10      	pop	{r4, pc}
 8000e12:	5ccc      	ldrb	r4, [r1, r3]
 8000e14:	54c4      	strb	r4, [r0, r3]
 8000e16:	3301      	adds	r3, #1
 8000e18:	e7f8      	b.n	8000e0c <memcpy+0x4>

08000e1a <memset>:
 8000e1a:	0003      	movs	r3, r0
 8000e1c:	1812      	adds	r2, r2, r0
 8000e1e:	4293      	cmp	r3, r2
 8000e20:	d100      	bne.n	8000e24 <memset+0xa>
 8000e22:	4770      	bx	lr
 8000e24:	7019      	strb	r1, [r3, #0]
 8000e26:	3301      	adds	r3, #1
 8000e28:	e7f9      	b.n	8000e1e <memset+0x4>
	...

08000e2c <_init>:
 8000e2c:	b5f8      	push	{r3, r4, r5, r6, r7, lr}
 8000e2e:	46c0      	nop			; (mov r8, r8)
 8000e30:	bcf8      	pop	{r3, r4, r5, r6, r7}
 8000e32:	bc08      	pop	{r3}
 8000e34:	469e      	mov	lr, r3
 8000e36:	4770      	bx	lr

08000e38 <_fini>:
 8000e38:	b5f8      	push	{r3, r4, r5, r6, r7, lr}
 8000e3a:	46c0      	nop			; (mov r8, r8)
 8000e3c:	bcf8      	pop	{r3, r4, r5, r6, r7}
 8000e3e:	bc08      	pop	{r3}
 8000e40:	469e      	mov	lr, r3
 8000e42:	4770      	bx	lr
